Archive member included because of file (symbol)

/home/ubuntu/Desktop/RockboxRCC/bu800/apps/plugins/libplugin.a(helper.o)
                              /home/ubuntu/Desktop/RockboxRCC/bu800/apps/plugins/pictureflow/pictureflow.o (backlight_ignore_timeout)
/home/ubuntu/Desktop/RockboxRCC/bu800/apps/plugins/libplugin.a(configfile.o)
                              /home/ubuntu/Desktop/RockboxRCC/bu800/apps/plugins/pictureflow/pictureflow.o (configfile_save)
/home/ubuntu/Desktop/RockboxRCC/bu800/apps/plugins/libplugin.a(playback_control.o)
                              /home/ubuntu/Desktop/RockboxRCC/bu800/apps/plugins/pictureflow/pictureflow.o (playback_control)
/home/ubuntu/Desktop/RockboxRCC/bu800/apps/plugins/libplugin.a(read_image.o)
                              /home/ubuntu/Desktop/RockboxRCC/bu800/apps/plugins/pictureflow/pictureflow.o (read_image_file)
/home/ubuntu/android-ndk-r9c/toolchains/arm-linux-androideabi-4.6/prebuilt/linux-x86/bin/../lib/gcc/arm-linux-androideabi/4.6/libgcc.a(_divsi3.o)
                              /home/ubuntu/Desktop/RockboxRCC/bu800/apps/plugins/pictureflow/pictureflow.o (__aeabi_idiv)
/home/ubuntu/android-ndk-r9c/toolchains/arm-linux-androideabi-4.6/prebuilt/linux-x86/bin/../lib/gcc/arm-linux-androideabi/4.6/libgcc.a(_dvmd_lnx.o)
                              /home/ubuntu/android-ndk-r9c/toolchains/arm-linux-androideabi-4.6/prebuilt/linux-x86/bin/../lib/gcc/arm-linux-androideabi/4.6/libgcc.a(_divsi3.o) (__aeabi_idiv0)
/home/ubuntu/android-ndk-r9c/toolchains/arm-linux-androideabi-4.6/prebuilt/linux-x86/bin/../lib/gcc/arm-linux-androideabi/4.6/libgcc.a(unwind-arm.o)
                              /home/ubuntu/android-ndk-r9c/toolchains/arm-linux-androideabi-4.6/prebuilt/linux-x86/bin/../lib/gcc/arm-linux-androideabi/4.6/libgcc.a(_dvmd_lnx.o) (__aeabi_unwind_cpp_pr1)
/home/ubuntu/android-ndk-r9c/toolchains/arm-linux-androideabi-4.6/prebuilt/linux-x86/bin/../lib/gcc/arm-linux-androideabi/4.6/libgcc.a(libunwind.o)
                              /home/ubuntu/android-ndk-r9c/toolchains/arm-linux-androideabi-4.6/prebuilt/linux-x86/bin/../lib/gcc/arm-linux-androideabi/4.6/libgcc.a(unwind-arm.o) (restore_core_regs)
/home/ubuntu/android-ndk-r9c/toolchains/arm-linux-androideabi-4.6/prebuilt/linux-x86/bin/../lib/gcc/arm-linux-androideabi/4.6/libgcc.a(pr-support.o)
                              /home/ubuntu/android-ndk-r9c/toolchains/arm-linux-androideabi-4.6/prebuilt/linux-x86/bin/../lib/gcc/arm-linux-androideabi/4.6/libgcc.a(unwind-arm.o) (__gnu_unwind_execute)

Allocating common symbols
Common symbol       size              file

thread_stack        0x4200            /home/ubuntu/Desktop/RockboxRCC/bu800/apps/plugins/pictureflow/pictureflow.o
thread_q            0x94              /home/ubuntu/Desktop/RockboxRCC/bu800/apps/plugins/pictureflow/pictureflow.o
buf                 0x4               /home/ubuntu/Desktop/RockboxRCC/bu800/apps/plugins/pictureflow/pictureflow.o
buf_size            0x4               /home/ubuntu/Desktop/RockboxRCC/bu800/apps/plugins/pictureflow/pictureflow.o
thread_id           0x4               /home/ubuntu/Desktop/RockboxRCC/bu800/apps/plugins/pictureflow/pictureflow.o

Discarded input sections

 .note.GNU-stack
                0x00000000        0x0 /home/ubuntu/android-ndk-r9c/platforms/android-19/arch-arm/usr/lib/crtbegin_so.o
 .note.GNU-stack
                0x00000000        0x0 /home/ubuntu/Desktop/RockboxRCC/bu800/apps/plugins/pictureflow/pictureflow.o
 .note.GNU-stack
                0x00000000        0x0 /home/ubuntu/Desktop/RockboxRCC/bu800/apps/plugins/plugin_crt0.o
 .note.GNU-stack
                0x00000000        0x0 /home/ubuntu/Desktop/RockboxRCC/bu800/apps/plugins/libplugin.a(helper.o)
 .note.GNU-stack
                0x00000000        0x0 /home/ubuntu/Desktop/RockboxRCC/bu800/apps/plugins/libplugin.a(configfile.o)
 .note.GNU-stack
                0x00000000        0x0 /home/ubuntu/Desktop/RockboxRCC/bu800/apps/plugins/libplugin.a(playback_control.o)
 .note.GNU-stack
                0x00000000        0x0 /home/ubuntu/Desktop/RockboxRCC/bu800/apps/plugins/libplugin.a(read_image.o)
 .note.GNU-stack
                0x00000000        0x0 /home/ubuntu/android-ndk-r9c/toolchains/arm-linux-androideabi-4.6/prebuilt/linux-x86/bin/../lib/gcc/arm-linux-androideabi/4.6/libgcc.a(_divsi3.o)
 .note.GNU-stack
                0x00000000        0x0 /home/ubuntu/android-ndk-r9c/toolchains/arm-linux-androideabi-4.6/prebuilt/linux-x86/bin/../lib/gcc/arm-linux-androideabi/4.6/libgcc.a(_dvmd_lnx.o)
 .note.GNU-stack
                0x00000000        0x0 /home/ubuntu/android-ndk-r9c/toolchains/arm-linux-androideabi-4.6/prebuilt/linux-x86/bin/../lib/gcc/arm-linux-androideabi/4.6/libgcc.a(unwind-arm.o)
 .note.GNU-stack
                0x00000000        0x0 /home/ubuntu/android-ndk-r9c/toolchains/arm-linux-androideabi-4.6/prebuilt/linux-x86/bin/../lib/gcc/arm-linux-androideabi/4.6/libgcc.a(libunwind.o)
 .note.GNU-stack
                0x00000000        0x0 /home/ubuntu/android-ndk-r9c/toolchains/arm-linux-androideabi-4.6/prebuilt/linux-x86/bin/../lib/gcc/arm-linux-androideabi/4.6/libgcc.a(pr-support.o)
 .note.GNU-stack
                0x00000000        0x0 /home/ubuntu/android-ndk-r9c/platforms/android-19/arch-arm/usr/lib/crtend_so.o

Memory map

 ** file header
                0x00000000       0x34
 ** segment headers
                0x00000034       0xe0

.dynsym         0x00000114      0x640
 ** dynsym      0x00000114      0x640

.dynstr         0x00000754      0x6e7
 ** string table
                0x00000754      0x6e7

.hash           0x00000e3c      0x31c
 ** hash        0x00000e3c      0x31c

.rel.dyn        0x00001158      0x3c0
 ** dynamic relocs
                0x00001158      0x3c0

.rel.plt        0x00001518       0x50
 ** dynamic relocs
                0x00001518       0x50

.plt            0x00001568       0x8c
 ** PLT         0x00001568       0x8c

.text           0x000015f4     0x6a0c
 .text          0x000015f4       0x14 /home/ubuntu/android-ndk-r9c/platforms/android-19/arch-arm/usr/lib/crtbegin_so.o
                0x000015f4                atexit
 .text.exit     0x00001608       0x10 /home/ubuntu/android-ndk-r9c/platforms/android-19/arch-arm/usr/lib/crtbegin_so.o
                0x00001608                __on_dlclose
 .text          0x00001618     0x47d4 /home/ubuntu/Desktop/RockboxRCC/bu800/apps/plugins/pictureflow/pictureflow.o
                0x000036a4                load_new_slide
                0x00003e58                reset_track_list
                0x00003fb8                plugin_start
 .text          0x00005dec      0x168 /home/ubuntu/Desktop/RockboxRCC/bu800/apps/plugins/plugin_crt0.o
                0x00005e0c                plugin__start
                0x00005e84                rb_atexit
                0x00005eb8                exit
                0x00005ee4                _exit
                0x00005f00                exit_on_usb
 .text          0x00005f54        0x0 /home/ubuntu/Desktop/RockboxRCC/bu800/apps/plugins/libplugin.a(helper.o)
 .text.backlight_force_on
                0x00005f54       0x24 /home/ubuntu/Desktop/RockboxRCC/bu800/apps/plugins/libplugin.a(helper.o)
                0x00005f54                backlight_force_on
 .text.backlight_ignore_timeout
                0x00005f78       0x34 /home/ubuntu/Desktop/RockboxRCC/bu800/apps/plugins/libplugin.a(helper.o)
                0x00005f78                backlight_ignore_timeout
 .text.backlight_use_settings
                0x00005fac       0x28 /home/ubuntu/Desktop/RockboxRCC/bu800/apps/plugins/libplugin.a(helper.o)
                0x00005fac                backlight_use_settings
 .text          0x00005fd4        0x0 /home/ubuntu/Desktop/RockboxRCC/bu800/apps/plugins/libplugin.a(configfile.o)
 .text.get_cfg_filename
                0x00005fd4       0x30 /home/ubuntu/Desktop/RockboxRCC/bu800/apps/plugins/libplugin.a(configfile.o)
 .text.configfile_save
                0x00006004      0x1dc /home/ubuntu/Desktop/RockboxRCC/bu800/apps/plugins/libplugin.a(configfile.o)
                0x00006004                configfile_save
 .text.configfile_load
                0x000061e0      0x2e0 /home/ubuntu/Desktop/RockboxRCC/bu800/apps/plugins/libplugin.a(configfile.o)
                0x000061e0                configfile_load
 .text.configfile_get_value
                0x000064c0      0x110 /home/ubuntu/Desktop/RockboxRCC/bu800/apps/plugins/libplugin.a(configfile.o)
                0x000064c0                configfile_get_value
 .text.configfile_update_entry
                0x000065d0      0x174 /home/ubuntu/Desktop/RockboxRCC/bu800/apps/plugins/libplugin.a(configfile.o)
                0x000065d0                configfile_update_entry
 .text          0x00006744        0x0 /home/ubuntu/Desktop/RockboxRCC/bu800/apps/plugins/libplugin.a(playback_control.o)
 .text.prevtrack
                0x00006744       0x24 /home/ubuntu/Desktop/RockboxRCC/bu800/apps/plugins/libplugin.a(playback_control.o)
 .text.play     0x00006768       0xc4 /home/ubuntu/Desktop/RockboxRCC/bu800/apps/plugins/libplugin.a(playback_control.o)
 .text.stop     0x0000682c       0x24 /home/ubuntu/Desktop/RockboxRCC/bu800/apps/plugins/libplugin.a(playback_control.o)
 .text.nexttrack
                0x00006850       0x24 /home/ubuntu/Desktop/RockboxRCC/bu800/apps/plugins/libplugin.a(playback_control.o)
 .text.volume   0x00006874       0x54 /home/ubuntu/Desktop/RockboxRCC/bu800/apps/plugins/libplugin.a(playback_control.o)
 .text.shuffle  0x000068c8       0x5c /home/ubuntu/Desktop/RockboxRCC/bu800/apps/plugins/libplugin.a(playback_control.o)
 .text.repeat_mode
                0x00006924       0xac /home/ubuntu/Desktop/RockboxRCC/bu800/apps/plugins/libplugin.a(playback_control.o)
 .text.playback_control_init
                0x000069d0       0x14 /home/ubuntu/Desktop/RockboxRCC/bu800/apps/plugins/libplugin.a(playback_control.o)
                0x000069d0                playback_control_init
 .text.playback_control
                0x000069e4       0x54 /home/ubuntu/Desktop/RockboxRCC/bu800/apps/plugins/libplugin.a(playback_control.o)
                0x000069e4                playback_control
 .text          0x00006a38        0x0 /home/ubuntu/Desktop/RockboxRCC/bu800/apps/plugins/libplugin.a(read_image.o)
 .text.read_image_file
                0x00006a38       0x98 /home/ubuntu/Desktop/RockboxRCC/bu800/apps/plugins/libplugin.a(read_image.o)
                0x00006a38                read_image_file
 .text          0x00006ad0       0xfc /home/ubuntu/android-ndk-r9c/toolchains/arm-linux-androideabi-4.6/prebuilt/linux-x86/bin/../lib/gcc/arm-linux-androideabi/4.6/libgcc.a(_divsi3.o)
                0x00006ad0                __divsi3
                0x00006ad0                __aeabi_idiv
                0x00006bac                __aeabi_idivmod
 .text          0x00006bcc       0x10 /home/ubuntu/android-ndk-r9c/toolchains/arm-linux-androideabi-4.6/prebuilt/linux-x86/bin/../lib/gcc/arm-linux-androideabi/4.6/libgcc.a(_dvmd_lnx.o)
                0x00006bcc                __aeabi_idiv0
                0x00006bcc                __aeabi_ldiv0
 .text          0x00006bdc      0xddc /home/ubuntu/android-ndk-r9c/toolchains/arm-linux-androideabi-4.6/prebuilt/linux-x86/bin/../lib/gcc/arm-linux-androideabi/4.6/libgcc.a(unwind-arm.o)
                0x00007420                __aeabi_unwind_cpp_pr0
                0x00007418                __aeabi_unwind_cpp_pr1
                0x00007410                __aeabi_unwind_cpp_pr2
                0x00006fa0                _Unwind_VRS_Get
                0x0000700c                _Unwind_VRS_Set
                0x00007428                _Unwind_VRS_Pop
                0x00007780                _Unwind_GetCFA
                0x00007788                __gnu_Unwind_RaiseException
                0x0000782c                __gnu_Unwind_ForcedUnwind
                0x00007848                __gnu_Unwind_Resume
                0x000078b4                __gnu_Unwind_Resume_or_Rethrow
                0x000078d4                _Unwind_Complete
                0x000078d8                _Unwind_DeleteException
                0x000078f8                __gnu_Unwind_Backtrace
 .text          0x000079b8      0x1a8 /home/ubuntu/android-ndk-r9c/toolchains/arm-linux-androideabi-4.6/prebuilt/linux-x86/bin/../lib/gcc/arm-linux-androideabi/4.6/libgcc.a(libunwind.o)
                0x000079b8                __restore_core_regs
                0x000079b8                restore_core_regs
                0x000079cc                __gnu_Unwind_Restore_VFP
                0x000079d4                __gnu_Unwind_Save_VFP
                0x000079dc                __gnu_Unwind_Restore_VFP_D
                0x000079e4                __gnu_Unwind_Save_VFP_D
                0x000079ec                __gnu_Unwind_Restore_VFP_D_16_to_31
                0x000079f4                __gnu_Unwind_Save_VFP_D_16_to_31
                0x000079fc                __gnu_Unwind_Restore_WMMXD
                0x00007a40                __gnu_Unwind_Save_WMMXD
                0x00007a84                __gnu_Unwind_Restore_WMMXC
                0x00007a98                __gnu_Unwind_Save_WMMXC
                0x00007aac                ___Unwind_RaiseException
                0x00007aac                _Unwind_RaiseException
                0x00007ad0                ___Unwind_Resume
                0x00007ad0                _Unwind_Resume
                0x00007af4                ___Unwind_Resume_or_Rethrow
                0x00007af4                _Unwind_Resume_or_Rethrow
                0x00007b18                ___Unwind_ForcedUnwind
                0x00007b18                _Unwind_ForcedUnwind
                0x00007b3c                ___Unwind_Backtrace
                0x00007b3c                _Unwind_Backtrace
 .text          0xffffffffffffffff      0x4a0 /home/ubuntu/android-ndk-r9c/toolchains/arm-linux-androideabi-4.6/prebuilt/linux-x86/bin/../lib/gcc/arm-linux-androideabi/4.6/libgcc.a(pr-support.o)
                0x00007bb8                __gnu_unwind_execute
                0x00007f4c                __gnu_unwind_frame
                0x00007f8c                _Unwind_GetRegionStart
                0x00007fb8                _Unwind_GetLanguageSpecificData
                0x00007ff0                _Unwind_GetDataRelBase
                0x00007ff8                _Unwind_GetTextRelBase
 .text          0x00008000        0x0 /home/ubuntu/android-ndk-r9c/platforms/android-19/arch-arm/usr/lib/crtend_so.o

.rodata         0x00008000      0x85d
 .rodata        0x00008000      0x154 /home/ubuntu/Desktop/RockboxRCC/bu800/apps/plugins/pictureflow/pictureflow.o
                0x00008094                pf_context_buttons
                0x000080b8                pf_context_album_scroll
 ** merge strings
                0x00008158      0x705

.ARM.extab      0x00008860       0x48
 .ARM.extab     0x00008860        0xc /home/ubuntu/android-ndk-r9c/toolchains/arm-linux-androideabi-4.6/prebuilt/linux-x86/bin/../lib/gcc/arm-linux-androideabi/4.6/libgcc.a(_dvmd_lnx.o)
 .ARM.extab     0x0000886c       0x24 /home/ubuntu/android-ndk-r9c/toolchains/arm-linux-androideabi-4.6/prebuilt/linux-x86/bin/../lib/gcc/arm-linux-androideabi/4.6/libgcc.a(unwind-arm.o)
 .ARM.extab     0x00008890       0x18 /home/ubuntu/android-ndk-r9c/toolchains/arm-linux-androideabi-4.6/prebuilt/linux-x86/bin/../lib/gcc/arm-linux-androideabi/4.6/libgcc.a(pr-support.o)

.ARM.exidx      0x000088a8       0xd8
 .ARM.exidx     0x000088a8        0x8 /home/ubuntu/android-ndk-r9c/toolchains/arm-linux-androideabi-4.6/prebuilt/linux-x86/bin/../lib/gcc/arm-linux-androideabi/4.6/libgcc.a(_dvmd_lnx.o)
 .ARM.exidx     0xffffffffffffffff       0xb0 /home/ubuntu/android-ndk-r9c/toolchains/arm-linux-androideabi-4.6/prebuilt/linux-x86/bin/../lib/gcc/arm-linux-androideabi/4.6/libgcc.a(unwind-arm.o)
 ** ARM cantunwind
                0x00008948        0x8
 .ARM.exidx     0xffffffffffffffff       0x38 /home/ubuntu/android-ndk-r9c/toolchains/arm-linux-androideabi-4.6/prebuilt/linux-x86/bin/../lib/gcc/arm-linux-androideabi/4.6/libgcc.a(pr-support.o)
 ** ARM cantunwind
                0x00008978        0x8

.data.rel.ro.local
                0x00009d0c      0x178
 .data.rel.ro.local
                0x00009d0c       0x80 /home/ubuntu/Desktop/RockboxRCC/bu800/apps/plugins/pictureflow/pictureflow.o
                0x00009d64                format_transposed
 .data.rel.ro.local.prevtrack_item__
                0x00009d8c        0x8 /home/ubuntu/Desktop/RockboxRCC/bu800/apps/plugins/libplugin.a(playback_control.o)
 .data.rel.ro.local.stop_item_
                0x00009d94        0xc /home/ubuntu/Desktop/RockboxRCC/bu800/apps/plugins/libplugin.a(playback_control.o)
 .data.rel.ro.local.playpause_item__
                0x00009da0        0x8 /home/ubuntu/Desktop/RockboxRCC/bu800/apps/plugins/libplugin.a(playback_control.o)
 .data.rel.ro.local.volume_item
                0x00009da8        0xc /home/ubuntu/Desktop/RockboxRCC/bu800/apps/plugins/libplugin.a(playback_control.o)
                0x00009da8                volume_item
 .data.rel.ro.local.playpause_item
                0x00009db4        0xc /home/ubuntu/Desktop/RockboxRCC/bu800/apps/plugins/libplugin.a(playback_control.o)
                0x00009db4                playpause_item
 .data.rel.ro.local.nexttrack_item__
                0x00009dc0        0x8 /home/ubuntu/Desktop/RockboxRCC/bu800/apps/plugins/libplugin.a(playback_control.o)
 .data.rel.ro.local.playpause_item_
                0x00009dc8        0xc /home/ubuntu/Desktop/RockboxRCC/bu800/apps/plugins/libplugin.a(playback_control.o)
 .data.rel.ro.local.repeat_mode_item__
                0x00009dd4        0x8 /home/ubuntu/Desktop/RockboxRCC/bu800/apps/plugins/libplugin.a(playback_control.o)
 .data.rel.ro.local.playback_control_menu__
                0x00009ddc        0xc /home/ubuntu/Desktop/RockboxRCC/bu800/apps/plugins/libplugin.a(playback_control.o)
 .data.rel.ro.local.repeat_mode_item_
                0x00009de8        0xc /home/ubuntu/Desktop/RockboxRCC/bu800/apps/plugins/libplugin.a(playback_control.o)
 .data.rel.ro.local.playback_control_menu
                0x00009df4        0xc /home/ubuntu/Desktop/RockboxRCC/bu800/apps/plugins/libplugin.a(playback_control.o)
                0x00009df4                playback_control_menu
 .data.rel.ro.local.nexttrack_item
                0x00009e00        0xc /home/ubuntu/Desktop/RockboxRCC/bu800/apps/plugins/libplugin.a(playback_control.o)
                0x00009e00                nexttrack_item
 .data.rel.ro.local.shuffle_item
                0x00009e0c        0xc /home/ubuntu/Desktop/RockboxRCC/bu800/apps/plugins/libplugin.a(playback_control.o)
                0x00009e0c                shuffle_item
 .data.rel.ro.local.volume_item_
                0x00009e18        0xc /home/ubuntu/Desktop/RockboxRCC/bu800/apps/plugins/libplugin.a(playback_control.o)
 .data.rel.ro.local.repeat_mode_item
                0x00009e24        0xc /home/ubuntu/Desktop/RockboxRCC/bu800/apps/plugins/libplugin.a(playback_control.o)
                0x00009e24                repeat_mode_item
 .data.rel.ro.local.nexttrack_item_
                0x00009e30        0xc /home/ubuntu/Desktop/RockboxRCC/bu800/apps/plugins/libplugin.a(playback_control.o)
 .data.rel.ro.local.prevtrack_item
                0x00009e3c        0xc /home/ubuntu/Desktop/RockboxRCC/bu800/apps/plugins/libplugin.a(playback_control.o)
                0x00009e3c                prevtrack_item
 .data.rel.ro.local.stop_item__
                0x00009e48        0x8 /home/ubuntu/Desktop/RockboxRCC/bu800/apps/plugins/libplugin.a(playback_control.o)
 .data.rel.ro.local.prevtrack_item_
                0x00009e50        0xc /home/ubuntu/Desktop/RockboxRCC/bu800/apps/plugins/libplugin.a(playback_control.o)
 .data.rel.ro.local.stop_item
                0x00009e5c        0xc /home/ubuntu/Desktop/RockboxRCC/bu800/apps/plugins/libplugin.a(playback_control.o)
                0x00009e5c                stop_item
 .data.rel.ro.local.shuffle_item_
                0x00009e68        0xc /home/ubuntu/Desktop/RockboxRCC/bu800/apps/plugins/libplugin.a(playback_control.o)
 .data.rel.ro.local.shuffle_item__
                0x00009e74        0x8 /home/ubuntu/Desktop/RockboxRCC/bu800/apps/plugins/libplugin.a(playback_control.o)
 .data.rel.ro.local.volume_item__
                0x00009e7c        0x8 /home/ubuntu/Desktop/RockboxRCC/bu800/apps/plugins/libplugin.a(playback_control.o)

.fini_array     0x00009e84        0x8
 .fini_array    0x00009e84        0x4 /home/ubuntu/android-ndk-r9c/platforms/android-19/arch-arm/usr/lib/crtbegin_so.o
 .fini_array    0x00009e88        0x4 /home/ubuntu/android-ndk-r9c/platforms/android-19/arch-arm/usr/lib/crtend_so.o

.data.rel.ro    0x00009e8c       0x18
 .data.rel.ro   0x00009e8c       0x18 /home/ubuntu/Desktop/RockboxRCC/bu800/apps/plugins/plugin_crt0.o
                0x00009e8c                __header

.init_array     0x00009ea4        0x4
 .init_array    0x00009ea4        0x4 /home/ubuntu/android-ndk-r9c/platforms/android-19/arch-arm/usr/lib/crtend_so.o

.dynamic        0x00009ea8       0xe0
 ** dynamic     0x00009ea8       0xe0

.got            0x00009f88       0x78
 ** GOT         0x00009f88       0x44
 ** GOT PLT     0x00009fcc       0x34

.data           0x0000a000      0x1b4
 .data          0x0000a000        0x4 /home/ubuntu/android-ndk-r9c/platforms/android-19/arch-arm/usr/lib/crtbegin_so.o
                0x0000a000                __dso_handle
 .data          0x0000a004       0x34 /home/ubuntu/Desktop/RockboxRCC/bu800/apps/plugins/pictureflow/pictureflow.o
 .data.rel.local
                0x0000a038      0x154 /home/ubuntu/Desktop/RockboxRCC/bu800/apps/plugins/pictureflow/pictureflow.o
 .data.rel      0x0000a18c        0x8 /home/ubuntu/Desktop/RockboxRCC/bu800/apps/plugins/pictureflow/pictureflow.o
                0x0000a18c                pf_contexts
 .data          0x0000a194        0x4 /home/ubuntu/Desktop/RockboxRCC/bu800/apps/plugins/plugin_crt0.o
                0x0000a194                rb
 .data          0x0000a198        0x0 /home/ubuntu/Desktop/RockboxRCC/bu800/apps/plugins/libplugin.a(helper.o)
 .data          0x0000a198        0x0 /home/ubuntu/Desktop/RockboxRCC/bu800/apps/plugins/libplugin.a(configfile.o)
 .data          0x0000a198        0x0 /home/ubuntu/Desktop/RockboxRCC/bu800/apps/plugins/libplugin.a(playback_control.o)
 .data.rel.playback_control_menu_
                0x0000a198       0x1c /home/ubuntu/Desktop/RockboxRCC/bu800/apps/plugins/libplugin.a(playback_control.o)
 .data          0x0000a1b4        0x0 /home/ubuntu/Desktop/RockboxRCC/bu800/apps/plugins/libplugin.a(read_image.o)
 .data          0x0000a1b4        0x0 /home/ubuntu/android-ndk-r9c/toolchains/arm-linux-androideabi-4.6/prebuilt/linux-x86/bin/../lib/gcc/arm-linux-androideabi/4.6/libgcc.a(_divsi3.o)
 .data          0x0000a1b4        0x0 /home/ubuntu/android-ndk-r9c/toolchains/arm-linux-androideabi-4.6/prebuilt/linux-x86/bin/../lib/gcc/arm-linux-androideabi/4.6/libgcc.a(_dvmd_lnx.o)
 .data          0x0000a1b4        0x0 /home/ubuntu/android-ndk-r9c/toolchains/arm-linux-androideabi-4.6/prebuilt/linux-x86/bin/../lib/gcc/arm-linux-androideabi/4.6/libgcc.a(unwind-arm.o)
 .data          0x0000a1b4        0x0 /home/ubuntu/android-ndk-r9c/toolchains/arm-linux-androideabi-4.6/prebuilt/linux-x86/bin/../lib/gcc/arm-linux-androideabi/4.6/libgcc.a(libunwind.o)
 .data          0x0000a1b4        0x0 /home/ubuntu/android-ndk-r9c/toolchains/arm-linux-androideabi-4.6/prebuilt/linux-x86/bin/../lib/gcc/arm-linux-androideabi/4.6/libgcc.a(pr-support.o)
 .data          0x0000a1b4        0x0 /home/ubuntu/android-ndk-r9c/platforms/android-19/arch-arm/usr/lib/crtend_so.o

.bss            0x0000a1b4     0x4d94
 .bss           0x0000a1b4        0x0 /home/ubuntu/android-ndk-r9c/platforms/android-19/arch-arm/usr/lib/crtbegin_so.o
 .bss           0x0000a1b4      0x9ec /home/ubuntu/Desktop/RockboxRCC/bu800/apps/plugins/pictureflow/pictureflow.o
 .bss           0x0000aba0      0x104 /home/ubuntu/Desktop/RockboxRCC/bu800/apps/plugins/plugin_crt0.o
 .bss           0x0000aca4        0x0 /home/ubuntu/Desktop/RockboxRCC/bu800/apps/plugins/libplugin.a(helper.o)
 .bss           0x0000aca4        0x0 /home/ubuntu/Desktop/RockboxRCC/bu800/apps/plugins/libplugin.a(configfile.o)
 .bss           0x0000aca4        0x0 /home/ubuntu/Desktop/RockboxRCC/bu800/apps/plugins/libplugin.a(playback_control.o)
 .bss.parentvp  0x0000aca4        0x4 /home/ubuntu/Desktop/RockboxRCC/bu800/apps/plugins/libplugin.a(playback_control.o)
                0x0000aca4                parentvp
 .bss           0x0000aca8        0x0 /home/ubuntu/Desktop/RockboxRCC/bu800/apps/plugins/libplugin.a(read_image.o)
 .bss           0x0000aca8        0x0 /home/ubuntu/android-ndk-r9c/toolchains/arm-linux-androideabi-4.6/prebuilt/linux-x86/bin/../lib/gcc/arm-linux-androideabi/4.6/libgcc.a(_divsi3.o)
 .bss           0x0000aca8        0x0 /home/ubuntu/android-ndk-r9c/toolchains/arm-linux-androideabi-4.6/prebuilt/linux-x86/bin/../lib/gcc/arm-linux-androideabi/4.6/libgcc.a(_dvmd_lnx.o)
 .bss           0x0000aca8        0x0 /home/ubuntu/android-ndk-r9c/toolchains/arm-linux-androideabi-4.6/prebuilt/linux-x86/bin/../lib/gcc/arm-linux-androideabi/4.6/libgcc.a(unwind-arm.o)
 .bss           0x0000aca8        0x0 /home/ubuntu/android-ndk-r9c/toolchains/arm-linux-androideabi-4.6/prebuilt/linux-x86/bin/../lib/gcc/arm-linux-androideabi/4.6/libgcc.a(libunwind.o)
 .bss           0x0000aca8        0x0 /home/ubuntu/android-ndk-r9c/toolchains/arm-linux-androideabi-4.6/prebuilt/linux-x86/bin/../lib/gcc/arm-linux-androideabi/4.6/libgcc.a(pr-support.o)
 .bss           0x0000aca8        0x0 /home/ubuntu/android-ndk-r9c/platforms/android-19/arch-arm/usr/lib/crtend_so.o
 ** common      0x0000aca8     0x42a0
