Archive member included because of file (symbol)

/home/ubuntu/Desktop/RockboxRCC/bu800/lib/rbcodec/codecs/libwavpack.a(wputils.o)
                              /home/ubuntu/Desktop/RockboxRCC/bu800/lib/rbcodec/codecs/wavpack.o (WavpackOpenFileInput)
/home/ubuntu/Desktop/RockboxRCC/bu800/lib/rbcodec/codecs/libwavpack.a(bits.o)
                              /home/ubuntu/Desktop/RockboxRCC/bu800/lib/rbcodec/codecs/libwavpack.a(wputils.o) (little_endian_to_native)
/home/ubuntu/Desktop/RockboxRCC/bu800/lib/rbcodec/codecs/libwavpack.a(unpack.o)
                              /home/ubuntu/Desktop/RockboxRCC/bu800/lib/rbcodec/codecs/libwavpack.a(wputils.o) (unpack_init)
/home/ubuntu/Desktop/RockboxRCC/bu800/lib/rbcodec/codecs/libwavpack.a(pack.o)
                              /home/ubuntu/Desktop/RockboxRCC/bu800/lib/rbcodec/codecs/libwavpack.a(wputils.o) (pack_init)
/home/ubuntu/Desktop/RockboxRCC/bu800/lib/rbcodec/codecs/libwavpack.a(words.o)
                              /home/ubuntu/Desktop/RockboxRCC/bu800/lib/rbcodec/codecs/libwavpack.a(pack.o) (init_words)
/home/ubuntu/Desktop/RockboxRCC/bu800/lib/rbcodec/codecs/libwavpack.a(arm.o)
                              /home/ubuntu/Desktop/RockboxRCC/bu800/lib/rbcodec/codecs/libwavpack.a(unpack.o) (decorr_stereo_pass_cont_arm)
/home/ubuntu/Desktop/RockboxRCC/bu800/lib/rbcodec/codecs/libwavpack.a(arml.o)
                              /home/ubuntu/Desktop/RockboxRCC/bu800/lib/rbcodec/codecs/libwavpack.a(unpack.o) (decorr_stereo_pass_cont_arml)
/home/ubuntu/Desktop/RockboxRCC/bu800/lib/rbcodec/codecs/libwavpack.a(float.o)
                              /home/ubuntu/Desktop/RockboxRCC/bu800/lib/rbcodec/codecs/libwavpack.a(unpack.o) (float_values)
/home/ubuntu/Desktop/RockboxRCC/bu800/lib/rbcodec/codecs/libwavpack.a(metadata.o)
                              /home/ubuntu/Desktop/RockboxRCC/bu800/lib/rbcodec/codecs/libwavpack.a(unpack.o) (read_metadata_buff)
/home/ubuntu/Desktop/RockboxRCC/bu800/lib/rbcodec/codecs/libcodec.a(codeclib.o)
                              /home/ubuntu/Desktop/RockboxRCC/bu800/lib/rbcodec/codecs/wavpack.o (codec_init)
/home/ubuntu/android-ndk-r9c/toolchains/arm-linux-androideabi-4.6/prebuilt/linux-x86/bin/../lib/gcc/arm-linux-androideabi/4.6/libgcc.a(_udivsi3.o)
                              /home/ubuntu/Desktop/RockboxRCC/bu800/lib/rbcodec/codecs/wavpack.o (__aeabi_uidiv)
/home/ubuntu/android-ndk-r9c/toolchains/arm-linux-androideabi-4.6/prebuilt/linux-x86/bin/../lib/gcc/arm-linux-androideabi/4.6/libgcc.a(_divsi3.o)
                              /home/ubuntu/Desktop/RockboxRCC/bu800/lib/rbcodec/codecs/wavpack.o (__aeabi_idiv)
/home/ubuntu/android-ndk-r9c/toolchains/arm-linux-androideabi-4.6/prebuilt/linux-x86/bin/../lib/gcc/arm-linux-androideabi/4.6/libgcc.a(_aeabi_ldivmod.o)
                              /home/ubuntu/Desktop/RockboxRCC/bu800/lib/rbcodec/codecs/wavpack.o (__aeabi_ldivmod)
/home/ubuntu/android-ndk-r9c/toolchains/arm-linux-androideabi-4.6/prebuilt/linux-x86/bin/../lib/gcc/arm-linux-androideabi/4.6/libgcc.a(_dvmd_lnx.o)
                              /home/ubuntu/android-ndk-r9c/toolchains/arm-linux-androideabi-4.6/prebuilt/linux-x86/bin/../lib/gcc/arm-linux-androideabi/4.6/libgcc.a(_udivsi3.o) (__aeabi_idiv0)
/home/ubuntu/android-ndk-r9c/toolchains/arm-linux-androideabi-4.6/prebuilt/linux-x86/bin/../lib/gcc/arm-linux-androideabi/4.6/libgcc.a(bpabi.o)
                              /home/ubuntu/android-ndk-r9c/toolchains/arm-linux-androideabi-4.6/prebuilt/linux-x86/bin/../lib/gcc/arm-linux-androideabi/4.6/libgcc.a(_aeabi_ldivmod.o) (__gnu_ldivmod_helper)
/home/ubuntu/android-ndk-r9c/toolchains/arm-linux-androideabi-4.6/prebuilt/linux-x86/bin/../lib/gcc/arm-linux-androideabi/4.6/libgcc.a(unwind-arm.o)
                              /home/ubuntu/android-ndk-r9c/toolchains/arm-linux-androideabi-4.6/prebuilt/linux-x86/bin/../lib/gcc/arm-linux-androideabi/4.6/libgcc.a(bpabi.o) (__aeabi_unwind_cpp_pr0)
/home/ubuntu/android-ndk-r9c/toolchains/arm-linux-androideabi-4.6/prebuilt/linux-x86/bin/../lib/gcc/arm-linux-androideabi/4.6/libgcc.a(libunwind.o)
                              /home/ubuntu/android-ndk-r9c/toolchains/arm-linux-androideabi-4.6/prebuilt/linux-x86/bin/../lib/gcc/arm-linux-androideabi/4.6/libgcc.a(unwind-arm.o) (restore_core_regs)
/home/ubuntu/android-ndk-r9c/toolchains/arm-linux-androideabi-4.6/prebuilt/linux-x86/bin/../lib/gcc/arm-linux-androideabi/4.6/libgcc.a(pr-support.o)
                              /home/ubuntu/android-ndk-r9c/toolchains/arm-linux-androideabi-4.6/prebuilt/linux-x86/bin/../lib/gcc/arm-linux-androideabi/4.6/libgcc.a(unwind-arm.o) (__gnu_unwind_execute)
/home/ubuntu/android-ndk-r9c/toolchains/arm-linux-androideabi-4.6/prebuilt/linux-x86/bin/../lib/gcc/arm-linux-androideabi/4.6/libgcc.a(_divdi3.o)
                              /home/ubuntu/android-ndk-r9c/toolchains/arm-linux-androideabi-4.6/prebuilt/linux-x86/bin/../lib/gcc/arm-linux-androideabi/4.6/libgcc.a(bpabi.o) (__divdi3)
/home/ubuntu/android-ndk-r9c/toolchains/arm-linux-androideabi-4.6/prebuilt/linux-x86/bin/../lib/gcc/arm-linux-androideabi/4.6/libgcc.a(_udivdi3.o)
                              /home/ubuntu/android-ndk-r9c/toolchains/arm-linux-androideabi-4.6/prebuilt/linux-x86/bin/../lib/gcc/arm-linux-androideabi/4.6/libgcc.a(bpabi.o) (__udivdi3)

Discarded input sections

 .text          0x00000000       0x14 /home/ubuntu/android-ndk-r9c/platforms/android-19/arch-arm/usr/lib/crtbegin_so.o
 .bss           0x00000000        0x0 /home/ubuntu/android-ndk-r9c/platforms/android-19/arch-arm/usr/lib/crtbegin_so.o
 .note.GNU-stack
                0x00000000        0x0 /home/ubuntu/android-ndk-r9c/platforms/android-19/arch-arm/usr/lib/crtbegin_so.o
 .data          0x00000000        0x0 /home/ubuntu/Desktop/RockboxRCC/bu800/lib/rbcodec/codecs/wavpack.o
 .note.GNU-stack
                0x00000000        0x0 /home/ubuntu/Desktop/RockboxRCC/bu800/lib/rbcodec/codecs/wavpack.o
 .bss           0x00000000        0x0 /home/ubuntu/Desktop/RockboxRCC/bu800/lib/rbcodec/codecs/codec_crt0.o
 .note.GNU-stack
                0x00000000        0x0 /home/ubuntu/Desktop/RockboxRCC/bu800/lib/rbcodec/codecs/codec_crt0.o
 .data          0x00000000        0x0 /home/ubuntu/Desktop/RockboxRCC/bu800/lib/rbcodec/codecs/libwavpack.a(wputils.o)
 .note.GNU-stack
                0x00000000        0x0 /home/ubuntu/Desktop/RockboxRCC/bu800/lib/rbcodec/codecs/libwavpack.a(wputils.o)
 .data          0x00000000        0x0 /home/ubuntu/Desktop/RockboxRCC/bu800/lib/rbcodec/codecs/libwavpack.a(bits.o)
 .bss           0x00000000        0x0 /home/ubuntu/Desktop/RockboxRCC/bu800/lib/rbcodec/codecs/libwavpack.a(bits.o)
 .note.GNU-stack
                0x00000000        0x0 /home/ubuntu/Desktop/RockboxRCC/bu800/lib/rbcodec/codecs/libwavpack.a(bits.o)
 .data          0x00000000        0x0 /home/ubuntu/Desktop/RockboxRCC/bu800/lib/rbcodec/codecs/libwavpack.a(unpack.o)
 .bss           0x00000000        0x0 /home/ubuntu/Desktop/RockboxRCC/bu800/lib/rbcodec/codecs/libwavpack.a(unpack.o)
 .note.GNU-stack
                0x00000000        0x0 /home/ubuntu/Desktop/RockboxRCC/bu800/lib/rbcodec/codecs/libwavpack.a(unpack.o)
 .data          0x00000000        0x0 /home/ubuntu/Desktop/RockboxRCC/bu800/lib/rbcodec/codecs/libwavpack.a(pack.o)
 .bss           0x00000000        0x0 /home/ubuntu/Desktop/RockboxRCC/bu800/lib/rbcodec/codecs/libwavpack.a(pack.o)
 .note.GNU-stack
                0x00000000        0x0 /home/ubuntu/Desktop/RockboxRCC/bu800/lib/rbcodec/codecs/libwavpack.a(pack.o)
 .data          0x00000000        0x0 /home/ubuntu/Desktop/RockboxRCC/bu800/lib/rbcodec/codecs/libwavpack.a(words.o)
 .bss           0x00000000        0x0 /home/ubuntu/Desktop/RockboxRCC/bu800/lib/rbcodec/codecs/libwavpack.a(words.o)
 .note.GNU-stack
                0x00000000        0x0 /home/ubuntu/Desktop/RockboxRCC/bu800/lib/rbcodec/codecs/libwavpack.a(words.o)
 .data          0x00000000        0x0 /home/ubuntu/Desktop/RockboxRCC/bu800/lib/rbcodec/codecs/libwavpack.a(arm.o)
 .bss           0x00000000        0x0 /home/ubuntu/Desktop/RockboxRCC/bu800/lib/rbcodec/codecs/libwavpack.a(arm.o)
 .note.GNU-stack
                0x00000000        0x0 /home/ubuntu/Desktop/RockboxRCC/bu800/lib/rbcodec/codecs/libwavpack.a(arm.o)
 .data          0x00000000        0x0 /home/ubuntu/Desktop/RockboxRCC/bu800/lib/rbcodec/codecs/libwavpack.a(arml.o)
 .bss           0x00000000        0x0 /home/ubuntu/Desktop/RockboxRCC/bu800/lib/rbcodec/codecs/libwavpack.a(arml.o)
 .note.GNU-stack
                0x00000000        0x0 /home/ubuntu/Desktop/RockboxRCC/bu800/lib/rbcodec/codecs/libwavpack.a(arml.o)
 .data          0x00000000        0x0 /home/ubuntu/Desktop/RockboxRCC/bu800/lib/rbcodec/codecs/libwavpack.a(float.o)
 .bss           0x00000000        0x0 /home/ubuntu/Desktop/RockboxRCC/bu800/lib/rbcodec/codecs/libwavpack.a(float.o)
 .note.GNU-stack
                0x00000000        0x0 /home/ubuntu/Desktop/RockboxRCC/bu800/lib/rbcodec/codecs/libwavpack.a(float.o)
 .data          0x00000000        0x0 /home/ubuntu/Desktop/RockboxRCC/bu800/lib/rbcodec/codecs/libwavpack.a(metadata.o)
 .bss           0x00000000        0x0 /home/ubuntu/Desktop/RockboxRCC/bu800/lib/rbcodec/codecs/libwavpack.a(metadata.o)
 .note.GNU-stack
                0x00000000        0x0 /home/ubuntu/Desktop/RockboxRCC/bu800/lib/rbcodec/codecs/libwavpack.a(metadata.o)
 .text          0x00000000        0x0 /home/ubuntu/Desktop/RockboxRCC/bu800/lib/rbcodec/codecs/libcodec.a(codeclib.o)
 .data          0x00000000        0x0 /home/ubuntu/Desktop/RockboxRCC/bu800/lib/rbcodec/codecs/libcodec.a(codeclib.o)
 .note.GNU-stack
                0x00000000        0x0 /home/ubuntu/Desktop/RockboxRCC/bu800/lib/rbcodec/codecs/libcodec.a(codeclib.o)
 .data          0x00000000        0x0 /home/ubuntu/android-ndk-r9c/toolchains/arm-linux-androideabi-4.6/prebuilt/linux-x86/bin/../lib/gcc/arm-linux-androideabi/4.6/libgcc.a(_udivsi3.o)
 .bss           0x00000000        0x0 /home/ubuntu/android-ndk-r9c/toolchains/arm-linux-androideabi-4.6/prebuilt/linux-x86/bin/../lib/gcc/arm-linux-androideabi/4.6/libgcc.a(_udivsi3.o)
 .note.GNU-stack
                0x00000000        0x0 /home/ubuntu/android-ndk-r9c/toolchains/arm-linux-androideabi-4.6/prebuilt/linux-x86/bin/../lib/gcc/arm-linux-androideabi/4.6/libgcc.a(_udivsi3.o)
 .data          0x00000000        0x0 /home/ubuntu/android-ndk-r9c/toolchains/arm-linux-androideabi-4.6/prebuilt/linux-x86/bin/../lib/gcc/arm-linux-androideabi/4.6/libgcc.a(_divsi3.o)
 .bss           0x00000000        0x0 /home/ubuntu/android-ndk-r9c/toolchains/arm-linux-androideabi-4.6/prebuilt/linux-x86/bin/../lib/gcc/arm-linux-androideabi/4.6/libgcc.a(_divsi3.o)
 .note.GNU-stack
                0x00000000        0x0 /home/ubuntu/android-ndk-r9c/toolchains/arm-linux-androideabi-4.6/prebuilt/linux-x86/bin/../lib/gcc/arm-linux-androideabi/4.6/libgcc.a(_divsi3.o)
 .data          0x00000000        0x0 /home/ubuntu/android-ndk-r9c/toolchains/arm-linux-androideabi-4.6/prebuilt/linux-x86/bin/../lib/gcc/arm-linux-androideabi/4.6/libgcc.a(_aeabi_ldivmod.o)
 .bss           0x00000000        0x0 /home/ubuntu/android-ndk-r9c/toolchains/arm-linux-androideabi-4.6/prebuilt/linux-x86/bin/../lib/gcc/arm-linux-androideabi/4.6/libgcc.a(_aeabi_ldivmod.o)
 .note.GNU-stack
                0x00000000        0x0 /home/ubuntu/android-ndk-r9c/toolchains/arm-linux-androideabi-4.6/prebuilt/linux-x86/bin/../lib/gcc/arm-linux-androideabi/4.6/libgcc.a(_aeabi_ldivmod.o)
 .data          0x00000000        0x0 /home/ubuntu/android-ndk-r9c/toolchains/arm-linux-androideabi-4.6/prebuilt/linux-x86/bin/../lib/gcc/arm-linux-androideabi/4.6/libgcc.a(_dvmd_lnx.o)
 .bss           0x00000000        0x0 /home/ubuntu/android-ndk-r9c/toolchains/arm-linux-androideabi-4.6/prebuilt/linux-x86/bin/../lib/gcc/arm-linux-androideabi/4.6/libgcc.a(_dvmd_lnx.o)
 .note.GNU-stack
                0x00000000        0x0 /home/ubuntu/android-ndk-r9c/toolchains/arm-linux-androideabi-4.6/prebuilt/linux-x86/bin/../lib/gcc/arm-linux-androideabi/4.6/libgcc.a(_dvmd_lnx.o)
 .data          0x00000000        0x0 /home/ubuntu/android-ndk-r9c/toolchains/arm-linux-androideabi-4.6/prebuilt/linux-x86/bin/../lib/gcc/arm-linux-androideabi/4.6/libgcc.a(bpabi.o)
 .bss           0x00000000        0x0 /home/ubuntu/android-ndk-r9c/toolchains/arm-linux-androideabi-4.6/prebuilt/linux-x86/bin/../lib/gcc/arm-linux-androideabi/4.6/libgcc.a(bpabi.o)
 .ARM.extab     0x00000000        0x0 /home/ubuntu/android-ndk-r9c/toolchains/arm-linux-androideabi-4.6/prebuilt/linux-x86/bin/../lib/gcc/arm-linux-androideabi/4.6/libgcc.a(bpabi.o)
 .note.GNU-stack
                0x00000000        0x0 /home/ubuntu/android-ndk-r9c/toolchains/arm-linux-androideabi-4.6/prebuilt/linux-x86/bin/../lib/gcc/arm-linux-androideabi/4.6/libgcc.a(bpabi.o)
 .data          0x00000000        0x0 /home/ubuntu/android-ndk-r9c/toolchains/arm-linux-androideabi-4.6/prebuilt/linux-x86/bin/../lib/gcc/arm-linux-androideabi/4.6/libgcc.a(unwind-arm.o)
 .bss           0x00000000        0x0 /home/ubuntu/android-ndk-r9c/toolchains/arm-linux-androideabi-4.6/prebuilt/linux-x86/bin/../lib/gcc/arm-linux-androideabi/4.6/libgcc.a(unwind-arm.o)
 .note.GNU-stack
                0x00000000        0x0 /home/ubuntu/android-ndk-r9c/toolchains/arm-linux-androideabi-4.6/prebuilt/linux-x86/bin/../lib/gcc/arm-linux-androideabi/4.6/libgcc.a(unwind-arm.o)
 .data          0x00000000        0x0 /home/ubuntu/android-ndk-r9c/toolchains/arm-linux-androideabi-4.6/prebuilt/linux-x86/bin/../lib/gcc/arm-linux-androideabi/4.6/libgcc.a(libunwind.o)
 .bss           0x00000000        0x0 /home/ubuntu/android-ndk-r9c/toolchains/arm-linux-androideabi-4.6/prebuilt/linux-x86/bin/../lib/gcc/arm-linux-androideabi/4.6/libgcc.a(libunwind.o)
 .note.GNU-stack
                0x00000000        0x0 /home/ubuntu/android-ndk-r9c/toolchains/arm-linux-androideabi-4.6/prebuilt/linux-x86/bin/../lib/gcc/arm-linux-androideabi/4.6/libgcc.a(libunwind.o)
 .data          0x00000000        0x0 /home/ubuntu/android-ndk-r9c/toolchains/arm-linux-androideabi-4.6/prebuilt/linux-x86/bin/../lib/gcc/arm-linux-androideabi/4.6/libgcc.a(pr-support.o)
 .bss           0x00000000        0x0 /home/ubuntu/android-ndk-r9c/toolchains/arm-linux-androideabi-4.6/prebuilt/linux-x86/bin/../lib/gcc/arm-linux-androideabi/4.6/libgcc.a(pr-support.o)
 .note.GNU-stack
                0x00000000        0x0 /home/ubuntu/android-ndk-r9c/toolchains/arm-linux-androideabi-4.6/prebuilt/linux-x86/bin/../lib/gcc/arm-linux-androideabi/4.6/libgcc.a(pr-support.o)
 .data          0x00000000        0x0 /home/ubuntu/android-ndk-r9c/toolchains/arm-linux-androideabi-4.6/prebuilt/linux-x86/bin/../lib/gcc/arm-linux-androideabi/4.6/libgcc.a(_divdi3.o)
 .bss           0x00000000        0x0 /home/ubuntu/android-ndk-r9c/toolchains/arm-linux-androideabi-4.6/prebuilt/linux-x86/bin/../lib/gcc/arm-linux-androideabi/4.6/libgcc.a(_divdi3.o)
 .ARM.extab     0x00000000        0x0 /home/ubuntu/android-ndk-r9c/toolchains/arm-linux-androideabi-4.6/prebuilt/linux-x86/bin/../lib/gcc/arm-linux-androideabi/4.6/libgcc.a(_divdi3.o)
 .note.GNU-stack
                0x00000000        0x0 /home/ubuntu/android-ndk-r9c/toolchains/arm-linux-androideabi-4.6/prebuilt/linux-x86/bin/../lib/gcc/arm-linux-androideabi/4.6/libgcc.a(_divdi3.o)
 .data          0x00000000        0x0 /home/ubuntu/android-ndk-r9c/toolchains/arm-linux-androideabi-4.6/prebuilt/linux-x86/bin/../lib/gcc/arm-linux-androideabi/4.6/libgcc.a(_udivdi3.o)
 .bss           0x00000000        0x0 /home/ubuntu/android-ndk-r9c/toolchains/arm-linux-androideabi-4.6/prebuilt/linux-x86/bin/../lib/gcc/arm-linux-androideabi/4.6/libgcc.a(_udivdi3.o)
 .ARM.extab     0x00000000        0x0 /home/ubuntu/android-ndk-r9c/toolchains/arm-linux-androideabi-4.6/prebuilt/linux-x86/bin/../lib/gcc/arm-linux-androideabi/4.6/libgcc.a(_udivdi3.o)
 .note.GNU-stack
                0x00000000        0x0 /home/ubuntu/android-ndk-r9c/toolchains/arm-linux-androideabi-4.6/prebuilt/linux-x86/bin/../lib/gcc/arm-linux-androideabi/4.6/libgcc.a(_udivdi3.o)
 .text          0x00000000        0x0 /home/ubuntu/android-ndk-r9c/platforms/android-19/arch-arm/usr/lib/crtend_so.o
 .data          0x00000000        0x0 /home/ubuntu/android-ndk-r9c/platforms/android-19/arch-arm/usr/lib/crtend_so.o
 .bss           0x00000000        0x0 /home/ubuntu/android-ndk-r9c/platforms/android-19/arch-arm/usr/lib/crtend_so.o
 .note.GNU-stack
                0x00000000        0x0 /home/ubuntu/android-ndk-r9c/platforms/android-19/arch-arm/usr/lib/crtend_so.o

Memory map

 ** file header
                0x00000000       0x34
 ** segment headers
                0x00000034       0xe0

.dynsym         0x00000114      0x970
 ** dynsym      0x00000114      0x970

.dynstr         0x00000a84      0xa30
 ** string table
                0x00000a84      0xa30

.hash           0x000014b4      0x470
 ** hash        0x000014b4      0x470

.rel.dyn        0x00001924       0x68
 ** dynamic relocs
                0x00001924       0x68

.rel.plt        0x0000198c       0x30
 ** dynamic relocs
                0x0000198c       0x30

.plt            0x000019bc       0x5c
 ** PLT         0x000019bc       0x5c

.text           0x00001a18     0x8b80
 .text.exit     0x00001a18       0x10 /home/ubuntu/android-ndk-r9c/platforms/android-19/arch-arm/usr/lib/crtbegin_so.o
                0x00001a18                __on_dlclose
 .text          0x00001a28      0x384 /home/ubuntu/Desktop/RockboxRCC/bu800/lib/rbcodec/codecs/wavpack.o
                0x00001a60                codec_run
                0x00001d78                codec_main
 .text          0x00001dac       0x14 /home/ubuntu/Desktop/RockboxRCC/bu800/lib/rbcodec/codecs/codec_crt0.o
                0x00001dac                _start
                0x00001db4                codec_start
 .text          0x00001dc0      0x8dc /home/ubuntu/Desktop/RockboxRCC/bu800/lib/rbcodec/codecs/libwavpack.a(wputils.o)
                0x00001f28                WavpackOpenFileInput
                0x00002140                WavpackGetMode
                0x000021a0                WavpackUnpackSamples
                0x000023a8                WavpackGetNumSamples
                0x000023b8                WavpackGetSampleIndex
                0x000023c8                WavpackGetNumErrors
                0x000023d4                WavpackLossyBlocks
                0x000023e0                WavpackGetSampleRate
                0x000023f4                WavpackGetNumChannels
                0x00002404                WavpackGetBitsPerSample
                0x00002414                WavpackGetBytesPerSample
                0x00002424                WavpackGetReducedChannels
                0x00002444                WavpackOpenFileOutput
                0x00002470                WavpackSetConfiguration
                0x000025b0                WavpackAddWrapper
                0x000025bc                WavpackStartBlock
                0x000025c8                WavpackPackSamples
                0x0000261c                WavpackFinishBlock
                0x0000264c                WavpackUpdateNumSamples
                0x00002688                WavpackGetWrapperLocation
 .text          0x0000269c      0x260 /home/ubuntu/Desktop/RockboxRCC/bu800/lib/rbcodec/codecs/libwavpack.a(bits.o)
                0x0000276c                bs_open_read
                0x000027c8                bs_open_write
                0x000027f8                bs_close_write
                0x000028c4                little_endian_to_native
                0x000028e0                native_to_little_endian
 .text          0x000028fc     0x1a44 /home/ubuntu/Desktop/RockboxRCC/bu800/lib/rbcodec/codecs/libwavpack.a(unpack.o)
                0x000032a0                unpack_init
                0x000033ec                init_wv_bitstream
                0x00003464                read_decorr_terms
                0x00003594                read_decorr_weights
                0x00003680                read_decorr_samples
                0x000038a4                read_int32_info
                0x000038e8                read_channel_info
                0x00003950                read_config_info
                0x00003994                read_sample_rate
                0x000039cc                unpack_samples
                0x0000432c                check_crc_error
 .text          0x00004340      0xeac /home/ubuntu/Desktop/RockboxRCC/bu800/lib/rbcodec/codecs/libwavpack.a(pack.o)
                0x00004340                pack_init
                0x000044e8                pack_start_block
                0x00004908                pack_samples
                0x00004fa0                pack_finish_block
 .text          0x000051ec     0x2448 /home/ubuntu/Desktop/RockboxRCC/bu800/lib/rbcodec/codecs/libwavpack.a(words.o)
                0x000051ec                init_words
                0x000051fc                flush_word
                0x000058b8                send_words
                0x00005d20                log2s
                0x00005e98                exp2s
                0x00005ef0                get_words
                0x00006eec                read_hybrid_profile
                0x00007020                read_entropy_vars
                0x000070e4                write_entropy_vars
                0x000075d8                store_weight
                0x00007620                restore_weight
 .text          0x00007634      0x3fc /home/ubuntu/Desktop/RockboxRCC/bu800/lib/rbcodec/codecs/libwavpack.a(arm.o)
                0x00007634                decorr_stereo_pass_cont_arm
 .text          0x00007a30      0x460 /home/ubuntu/Desktop/RockboxRCC/bu800/lib/rbcodec/codecs/libwavpack.a(arml.o)
                0x00007a30                decorr_stereo_pass_cont_arml
 .text          0x00007e90       0xe0 /home/ubuntu/Desktop/RockboxRCC/bu800/lib/rbcodec/codecs/libwavpack.a(float.o)
                0x00007e90                read_float_info
                0x00007ed4                float_values
 .text          0x00007f70      0x410 /home/ubuntu/Desktop/RockboxRCC/bu800/lib/rbcodec/codecs/libwavpack.a(metadata.o)
                0x00007f70                read_metadata_buff
                0x00008128                process_metadata
                0x0000821c                copy_metadata
                0x00008374                free_metadata
 .text.codec_init
                0x00008380       0x40 /home/ubuntu/Desktop/RockboxRCC/bu800/lib/rbcodec/codecs/libcodec.a(codeclib.o)
                0x00008380                codec_init
 .text.codec_set_replaygain
                0x000083c0       0x50 /home/ubuntu/Desktop/RockboxRCC/bu800/lib/rbcodec/codecs/libcodec.a(codeclib.o)
                0x000083c0                codec_set_replaygain
 .text.codec_malloc
                0x00008410       0x54 /home/ubuntu/Desktop/RockboxRCC/bu800/lib/rbcodec/codecs/libcodec.a(codeclib.o)
                0x00008410                codec_malloc
 .text.codec_calloc
                0x00008464       0x44 /home/ubuntu/Desktop/RockboxRCC/bu800/lib/rbcodec/codecs/libcodec.a(codeclib.o)
                0x00008464                codec_calloc
 .text.codec_free
                0x000084a8        0x4 /home/ubuntu/Desktop/RockboxRCC/bu800/lib/rbcodec/codecs/libcodec.a(codeclib.o)
                0x000084a8                codec_free
 .text.codec_realloc
                0x000084ac       0x48 /home/ubuntu/Desktop/RockboxRCC/bu800/lib/rbcodec/codecs/libcodec.a(codeclib.o)
                0x000084ac                codec_realloc
 .text.strlen   0x000084f4       0x20 /home/ubuntu/Desktop/RockboxRCC/bu800/lib/rbcodec/codecs/libcodec.a(codeclib.o)
                0x000084f4                strlen
 .text.strcpy   0x00008514       0x20 /home/ubuntu/Desktop/RockboxRCC/bu800/lib/rbcodec/codecs/libcodec.a(codeclib.o)
                0x00008514                strcpy
 .text.strcat   0x00008534       0x20 /home/ubuntu/Desktop/RockboxRCC/bu800/lib/rbcodec/codecs/libcodec.a(codeclib.o)
                0x00008534                strcat
 .text.strcmp   0x00008554       0x20 /home/ubuntu/Desktop/RockboxRCC/bu800/lib/rbcodec/codecs/libcodec.a(codeclib.o)
                0x00008554                strcmp
 .text.memcpy   0x00008574       0x20 /home/ubuntu/Desktop/RockboxRCC/bu800/lib/rbcodec/codecs/libcodec.a(codeclib.o)
                0x00008574                memcpy
 .text.memset   0x00008594       0x20 /home/ubuntu/Desktop/RockboxRCC/bu800/lib/rbcodec/codecs/libcodec.a(codeclib.o)
                0x00008594                memset
 .text.memcmp   0x000085b4       0x20 /home/ubuntu/Desktop/RockboxRCC/bu800/lib/rbcodec/codecs/libcodec.a(codeclib.o)
                0x000085b4                memcmp
 .text.memchr   0x000085d4       0x20 /home/ubuntu/Desktop/RockboxRCC/bu800/lib/rbcodec/codecs/libcodec.a(codeclib.o)
                0x000085d4                memchr
 .text.memmove  0x000085f4       0x20 /home/ubuntu/Desktop/RockboxRCC/bu800/lib/rbcodec/codecs/libcodec.a(codeclib.o)
                0x000085f4                memmove
 .text.qsort    0x00008614       0x20 /home/ubuntu/Desktop/RockboxRCC/bu800/lib/rbcodec/codecs/libcodec.a(codeclib.o)
                0x00008614                qsort
 .text          0x00008634       0xc8 /home/ubuntu/android-ndk-r9c/toolchains/arm-linux-androideabi-4.6/prebuilt/linux-x86/bin/../lib/gcc/arm-linux-androideabi/4.6/libgcc.a(_udivsi3.o)
                0x00008634                __udivsi3
                0x00008634                __aeabi_uidiv
                0x000086dc                __aeabi_uidivmod
 .text          0x000086fc       0xfc /home/ubuntu/android-ndk-r9c/toolchains/arm-linux-androideabi-4.6/prebuilt/linux-x86/bin/../lib/gcc/arm-linux-androideabi/4.6/libgcc.a(_divsi3.o)
                0x000086fc                __divsi3
                0x000086fc                __aeabi_idiv
                0x000087d8                __aeabi_idivmod
 .text          0x000087f8       0x44 /home/ubuntu/android-ndk-r9c/toolchains/arm-linux-androideabi-4.6/prebuilt/linux-x86/bin/../lib/gcc/arm-linux-androideabi/4.6/libgcc.a(_aeabi_ldivmod.o)
                0x000087f8                __aeabi_ldivmod
 .text          0x0000883c       0x10 /home/ubuntu/android-ndk-r9c/toolchains/arm-linux-androideabi-4.6/prebuilt/linux-x86/bin/../lib/gcc/arm-linux-androideabi/4.6/libgcc.a(_dvmd_lnx.o)
                0x0000883c                __aeabi_idiv0
                0x0000883c                __aeabi_ldiv0
 .text          0x0000884c       0x78 /home/ubuntu/android-ndk-r9c/toolchains/arm-linux-androideabi-4.6/prebuilt/linux-x86/bin/../lib/gcc/arm-linux-androideabi/4.6/libgcc.a(bpabi.o)
                0x0000884c                __gnu_ldivmod_helper
                0x00008888                __gnu_uldivmod_helper
 .text          0x000088c4      0xddc /home/ubuntu/android-ndk-r9c/toolchains/arm-linux-androideabi-4.6/prebuilt/linux-x86/bin/../lib/gcc/arm-linux-androideabi/4.6/libgcc.a(unwind-arm.o)
                0x00009108                __aeabi_unwind_cpp_pr0
                0x00009100                __aeabi_unwind_cpp_pr1
                0x000090f8                __aeabi_unwind_cpp_pr2
                0x00008c88                _Unwind_VRS_Get
                0x00008cf4                _Unwind_VRS_Set
                0x00009110                _Unwind_VRS_Pop
                0x00009468                _Unwind_GetCFA
                0x00009470                __gnu_Unwind_RaiseException
                0x00009514                __gnu_Unwind_ForcedUnwind
                0x00009530                __gnu_Unwind_Resume
                0x0000959c                __gnu_Unwind_Resume_or_Rethrow
                0x000095bc                _Unwind_Complete
                0x000095c0                _Unwind_DeleteException
                0x000095e0                __gnu_Unwind_Backtrace
 .text          0x000096a0      0x1a8 /home/ubuntu/android-ndk-r9c/toolchains/arm-linux-androideabi-4.6/prebuilt/linux-x86/bin/../lib/gcc/arm-linux-androideabi/4.6/libgcc.a(libunwind.o)
                0x000096a0                __restore_core_regs
                0x000096a0                restore_core_regs
                0x000096b4                __gnu_Unwind_Restore_VFP
                0x000096bc                __gnu_Unwind_Save_VFP
                0x000096c4                __gnu_Unwind_Restore_VFP_D
                0x000096cc                __gnu_Unwind_Save_VFP_D
                0x000096d4                __gnu_Unwind_Restore_VFP_D_16_to_31
                0x000096dc                __gnu_Unwind_Save_VFP_D_16_to_31
                0x000096e4                __gnu_Unwind_Restore_WMMXD
                0x00009728                __gnu_Unwind_Save_WMMXD
                0x0000976c                __gnu_Unwind_Restore_WMMXC
                0x00009780                __gnu_Unwind_Save_WMMXC
                0x00009794                ___Unwind_RaiseException
                0x00009794                _Unwind_RaiseException
                0x000097b8                ___Unwind_Resume
                0x000097b8                _Unwind_Resume
                0x000097dc                ___Unwind_Resume_or_Rethrow
                0x000097dc                _Unwind_Resume_or_Rethrow
                0x00009800                ___Unwind_ForcedUnwind
                0x00009800                _Unwind_ForcedUnwind
                0x00009824                ___Unwind_Backtrace
                0x00009824                _Unwind_Backtrace
 .text          0x00009848      0x4a0 /home/ubuntu/android-ndk-r9c/toolchains/arm-linux-androideabi-4.6/prebuilt/linux-x86/bin/../lib/gcc/arm-linux-androideabi/4.6/libgcc.a(pr-support.o)
                0x000098a0                __gnu_unwind_execute
                0x00009c34                __gnu_unwind_frame
                0x00009c74                _Unwind_GetRegionStart
                0x00009ca0                _Unwind_GetLanguageSpecificData
                0x00009cd8                _Unwind_GetDataRelBase
                0x00009ce0                _Unwind_GetTextRelBase
 .text          0x00009ce8      0x484 /home/ubuntu/android-ndk-r9c/toolchains/arm-linux-androideabi-4.6/prebuilt/linux-x86/bin/../lib/gcc/arm-linux-androideabi/4.6/libgcc.a(_divdi3.o)
                0x00009ce8                __divdi3
 .text          0xffffffffffffffff      0x42c /home/ubuntu/android-ndk-r9c/toolchains/arm-linux-androideabi-4.6/prebuilt/linux-x86/bin/../lib/gcc/arm-linux-androideabi/4.6/libgcc.a(_udivdi3.o)
                0x0000a16c                __udivdi3

.rodata         0x0000a598      0x6c0
 .rodata        0x0000a598       0x3c /home/ubuntu/Desktop/RockboxRCC/bu800/lib/rbcodec/codecs/libwavpack.a(wputils.o)
                0x0000a598                sample_rates
 ** merge strings
                0x0000a5d8       0x62
 .rodata        0x0000a63c       0x1c /home/ubuntu/Desktop/RockboxRCC/bu800/lib/rbcodec/codecs/libwavpack.a(pack.o)
 .rodata        0x0000a658      0x400 /home/ubuntu/Desktop/RockboxRCC/bu800/lib/rbcodec/codecs/libwavpack.a(words.o)
 .rodata        0x0000aa58      0x200 /home/ubuntu/Desktop/RockboxRCC/bu800/lib/rbcodec/codecs/libcodec.a(codeclib.o)
                0x0000aa58                bs_clz_tab
                0x0000ab58                bs_log2_tab

.ARM.extab      0x0000ac58       0x48
 .ARM.extab     0x0000ac58        0xc /home/ubuntu/android-ndk-r9c/toolchains/arm-linux-androideabi-4.6/prebuilt/linux-x86/bin/../lib/gcc/arm-linux-androideabi/4.6/libgcc.a(_dvmd_lnx.o)
 .ARM.extab     0x0000ac64       0x24 /home/ubuntu/android-ndk-r9c/toolchains/arm-linux-androideabi-4.6/prebuilt/linux-x86/bin/../lib/gcc/arm-linux-androideabi/4.6/libgcc.a(unwind-arm.o)
 .ARM.extab     0x0000ac88       0x18 /home/ubuntu/android-ndk-r9c/toolchains/arm-linux-androideabi-4.6/prebuilt/linux-x86/bin/../lib/gcc/arm-linux-androideabi/4.6/libgcc.a(pr-support.o)

.ARM.exidx      0x0000aca0       0xf0
 .ARM.exidx     0x0000aca0        0x8 /home/ubuntu/android-ndk-r9c/toolchains/arm-linux-androideabi-4.6/prebuilt/linux-x86/bin/../lib/gcc/arm-linux-androideabi/4.6/libgcc.a(_dvmd_lnx.o)
 .ARM.exidx     0xffffffffffffffff       0x10 /home/ubuntu/android-ndk-r9c/toolchains/arm-linux-androideabi-4.6/prebuilt/linux-x86/bin/../lib/gcc/arm-linux-androideabi/4.6/libgcc.a(bpabi.o)
 .ARM.exidx     0xffffffffffffffff       0xb0 /home/ubuntu/android-ndk-r9c/toolchains/arm-linux-androideabi-4.6/prebuilt/linux-x86/bin/../lib/gcc/arm-linux-androideabi/4.6/libgcc.a(unwind-arm.o)
 ** ARM cantunwind
                0x0000ad48        0x8
 .ARM.exidx     0xffffffffffffffff       0x38 /home/ubuntu/android-ndk-r9c/toolchains/arm-linux-androideabi-4.6/prebuilt/linux-x86/bin/../lib/gcc/arm-linux-androideabi/4.6/libgcc.a(pr-support.o)
 .ARM.exidx     0x0000ad78        0x8 /home/ubuntu/android-ndk-r9c/toolchains/arm-linux-androideabi-4.6/prebuilt/linux-x86/bin/../lib/gcc/arm-linux-androideabi/4.6/libgcc.a(_divdi3.o)
 .ARM.exidx     0x0000ad80        0x8 /home/ubuntu/android-ndk-r9c/toolchains/arm-linux-androideabi-4.6/prebuilt/linux-x86/bin/../lib/gcc/arm-linux-androideabi/4.6/libgcc.a(_udivdi3.o)
 ** ARM cantunwind
                0x0000ad88        0x8

.fini_array     0x0000beb0        0x8
 .fini_array    0x0000beb0        0x4 /home/ubuntu/android-ndk-r9c/platforms/android-19/arch-arm/usr/lib/crtbegin_so.o
 .fini_array    0x0000beb4        0x4 /home/ubuntu/android-ndk-r9c/platforms/android-19/arch-arm/usr/lib/crtend_so.o

.data.rel.ro    0x0000beb8       0x1c
 .data.rel.ro   0x0000beb8       0x1c /home/ubuntu/Desktop/RockboxRCC/bu800/lib/rbcodec/codecs/wavpack.o
                0x0000beb8                __header

.init_array     0x0000bed4        0x4
 .init_array    0x0000bed4        0x4 /home/ubuntu/android-ndk-r9c/platforms/android-19/arch-arm/usr/lib/crtend_so.o

.dynamic        0x0000bed8       0xe0
 ** dynamic     0x0000bed8       0xe0

.got            0x0000bfb8       0x48
 ** GOT         0x0000bfb8       0x24
 ** GOT PLT     0x0000bfdc       0x24

.data           0x0000c000        0x8
 .data          0x0000c000        0x4 /home/ubuntu/android-ndk-r9c/platforms/android-19/arch-arm/usr/lib/crtbegin_so.o
                0x0000c000                __dso_handle
 .data          0x0000c004        0x4 /home/ubuntu/Desktop/RockboxRCC/bu800/lib/rbcodec/codecs/codec_crt0.o
                0x0000c004                ci

.bss            0x0000c008     0x49d4
 .bss           0x0000c008     0x4000 /home/ubuntu/Desktop/RockboxRCC/bu800/lib/rbcodec/codecs/wavpack.o
 .bss           0x00010008      0x9c8 /home/ubuntu/Desktop/RockboxRCC/bu800/lib/rbcodec/codecs/libwavpack.a(wputils.o)
 .bss           0x000109d0        0xc /home/ubuntu/Desktop/RockboxRCC/bu800/lib/rbcodec/codecs/libcodec.a(codeclib.o)
