Archive member included because of file (symbol)

/home/ubuntu/Desktop/RockboxRCC/bu800/firmware/libfirmware.a(ata_idle_notify.o)
                              /home/ubuntu/Desktop/RockboxRCC/bu800/apps/settings.o (register_storage_idle_func)
/home/ubuntu/Desktop/RockboxRCC/bu800/firmware/libfirmware.a(events.o)
                              /home/ubuntu/Desktop/RockboxRCC/bu800/apps/plugin.o (add_event)
/home/ubuntu/Desktop/RockboxRCC/bu800/firmware/libfirmware.a(backlight.o)
                              /home/ubuntu/Desktop/RockboxRCC/bu800/apps/main.o (backlight_on)
/home/ubuntu/Desktop/RockboxRCC/bu800/firmware/libfirmware.a(buflib.o)
                              /home/ubuntu/Desktop/RockboxRCC/bu800/apps/plugin.o (buflib_init)
/home/ubuntu/Desktop/RockboxRCC/bu800/firmware/libfirmware.a(core_alloc.o)
                              /home/ubuntu/Desktop/RockboxRCC/bu800/apps/debug_menu.o (core_alloc)
/home/ubuntu/Desktop/RockboxRCC/bu800/firmware/libfirmware.a(general.o)
                              /home/ubuntu/Desktop/RockboxRCC/bu800/apps/plugin.o (round_value_to_list32)
/home/ubuntu/Desktop/RockboxRCC/bu800/firmware/libfirmware.a(powermgmt.o)
                              /home/ubuntu/Desktop/RockboxRCC/bu800/apps/debug_menu.o (battery_read_info)
/home/ubuntu/Desktop/RockboxRCC/bu800/firmware/libfirmware.a(cpuinfo-linux.o)
                              /home/ubuntu/Desktop/RockboxRCC/bu800/apps/debug_menu.o (cpuusage_linux)
/home/ubuntu/Desktop/RockboxRCC/bu800/firmware/libfirmware.a(usb.o)
                              /home/ubuntu/Desktop/RockboxRCC/bu800/firmware/libfirmware.a(powermgmt.o) (usb_inserted)
/home/ubuntu/Desktop/RockboxRCC/bu800/firmware/libfirmware.a(panic.o)
                              /home/ubuntu/Desktop/RockboxRCC/bu800/apps/buffering.o (panicf)
/home/ubuntu/Desktop/RockboxRCC/bu800/firmware/libfirmware.a(version.o)
                              /home/ubuntu/Desktop/RockboxRCC/bu800/apps/menus/main_menu.o (rbversion)
/home/ubuntu/Desktop/RockboxRCC/bu800/firmware/libfirmware.a(crc32.o)
                              /home/ubuntu/Desktop/RockboxRCC/bu800/apps/playlist.o (crc_32)
/home/ubuntu/Desktop/RockboxRCC/bu800/firmware/libfirmware.a(filefuncs.o)
                              /home/ubuntu/Desktop/RockboxRCC/bu800/apps/bookmark.o (file_exists)
/home/ubuntu/Desktop/RockboxRCC/bu800/firmware/libfirmware.a(format.o)
                              /home/ubuntu/Desktop/RockboxRCC/bu800/apps/playlist.o (fdprintf)
/home/ubuntu/Desktop/RockboxRCC/bu800/firmware/libfirmware.a(rbpaths.o)
                              /home/ubuntu/Desktop/RockboxRCC/bu800/apps/main.o (paths_init)
/home/ubuntu/Desktop/RockboxRCC/bu800/firmware/libfirmware.a(strcasecmp.o)
                              /home/ubuntu/Desktop/RockboxRCC/bu800/apps/filetypes.o (strcasecmp)
/home/ubuntu/Desktop/RockboxRCC/bu800/firmware/libfirmware.a(strcasestr.o)
                              /home/ubuntu/Desktop/RockboxRCC/bu800/apps/playlist_viewer.o (strcasestr)
/home/ubuntu/Desktop/RockboxRCC/bu800/firmware/libfirmware.a(strnatcmp.o)
                              /home/ubuntu/Desktop/RockboxRCC/bu800/apps/filetree.o (strnatcmp)
/home/ubuntu/Desktop/RockboxRCC/bu800/firmware/libfirmware.a(strlcat.o)
                              /home/ubuntu/Desktop/RockboxRCC/bu800/apps/plugin.o (strlcat)
/home/ubuntu/Desktop/RockboxRCC/bu800/firmware/libfirmware.a(strlcpy.o)
                              /home/ubuntu/Desktop/RockboxRCC/bu800/apps/bookmark.o (strlcpy)
/home/ubuntu/Desktop/RockboxRCC/bu800/firmware/libfirmware.a(structec.o)
                              /home/ubuntu/Desktop/RockboxRCC/bu800/apps/talk.o (structec_convert)
/home/ubuntu/Desktop/RockboxRCC/bu800/firmware/libfirmware.a(timefuncs.o)
                              /home/ubuntu/Desktop/RockboxRCC/bu800/apps/menus/time_menu.o (valid_time)
/home/ubuntu/Desktop/RockboxRCC/bu800/firmware/libfirmware.a(unicode.o)
                              /home/ubuntu/Desktop/RockboxRCC/bu800/apps/plugin.o (utf8encode)
/home/ubuntu/Desktop/RockboxRCC/bu800/firmware/libfirmware.a(scroll_engine.o)
                              /home/ubuntu/Desktop/RockboxRCC/bu800/apps/plugin.o (lcd_scroll_stop)
/home/ubuntu/Desktop/RockboxRCC/bu800/firmware/libfirmware.a(bidi.o)
                              /home/ubuntu/Desktop/RockboxRCC/bu800/apps/plugin.o (bidi_l2v)
/home/ubuntu/Desktop/RockboxRCC/bu800/firmware/libfirmware.a(font.o)
                              /home/ubuntu/Desktop/RockboxRCC/bu800/apps/main.o (font_init)
/home/ubuntu/Desktop/RockboxRCC/bu800/firmware/libfirmware.a(lru.o)
                              /home/ubuntu/Desktop/RockboxRCC/bu800/firmware/libfirmware.a(font.o) (lru_traverse)
/home/ubuntu/Desktop/RockboxRCC/bu800/firmware/libfirmware.a(screendump.o)
                              /home/ubuntu/Desktop/RockboxRCC/bu800/apps/plugin.o (screen_dump_set_hook)
/home/ubuntu/Desktop/RockboxRCC/bu800/firmware/libfirmware.a(lcd-16bit.o)
                              /home/ubuntu/Desktop/RockboxRCC/bu800/firmware/libfirmware.a(screendump.o) (lcd_framebuffer)
/home/ubuntu/Desktop/RockboxRCC/bu800/firmware/libfirmware.a(diacritic.o)
                              /home/ubuntu/Desktop/RockboxRCC/bu800/apps/plugin.o (is_diacritic)
/home/ubuntu/Desktop/RockboxRCC/bu800/firmware/libfirmware.a(led.o)
                              /home/ubuntu/Desktop/RockboxRCC/bu800/apps/plugin.o (led)
/home/ubuntu/Desktop/RockboxRCC/bu800/firmware/libfirmware.a(button.o)
                              /home/ubuntu/Desktop/RockboxRCC/bu800/apps/plugin.o (button_queue)
/home/ubuntu/Desktop/RockboxRCC/bu800/firmware/libfirmware.a(touchscreen.o)
                              /home/ubuntu/Desktop/RockboxRCC/bu800/apps/screens.o (touchscreen_disable_mapping)
/home/ubuntu/Desktop/RockboxRCC/bu800/firmware/libfirmware.a(sound.o)
                              /home/ubuntu/Desktop/RockboxRCC/bu800/apps/settings_list.o (sound_set_channels)
/home/ubuntu/Desktop/RockboxRCC/bu800/firmware/libfirmware.a(pcm_sampr.o)
                              /home/ubuntu/Desktop/RockboxRCC/bu800/apps/plugin.o (hw_freq_sampr)
/home/ubuntu/Desktop/RockboxRCC/bu800/firmware/libfirmware.a(pcm.o)
                              /home/ubuntu/Desktop/RockboxRCC/bu800/apps/plugin.o (pcm_calculate_peaks)
/home/ubuntu/Desktop/RockboxRCC/bu800/firmware/libfirmware.a(pcm_mixer.o)
                              /home/ubuntu/Desktop/RockboxRCC/bu800/apps/voice_thread.o (mixer_channel_play_data)
/home/ubuntu/Desktop/RockboxRCC/bu800/firmware/libfirmware.a(audiohw-swcodec.o)
                              /home/ubuntu/Desktop/RockboxRCC/bu800/firmware/libfirmware.a(sound.o) (audiohw_set_channel)
/home/ubuntu/Desktop/RockboxRCC/bu800/firmware/libfirmware.a(kernel-unix.o)
                              /home/ubuntu/Desktop/RockboxRCC/bu800/apps/plugin.o (timer_register)
/home/ubuntu/Desktop/RockboxRCC/bu800/firmware/libfirmware.a(filesystem-unix.o)
                              /home/ubuntu/Desktop/RockboxRCC/bu800/apps/bookmark.o (filesize)
/home/ubuntu/Desktop/RockboxRCC/bu800/firmware/libfirmware.a(lc-unix.o)
                              /home/ubuntu/Desktop/RockboxRCC/bu800/apps/plugin.o (lc_open)
/home/ubuntu/Desktop/RockboxRCC/bu800/firmware/libfirmware.a(lcd-android.o)
                              /home/ubuntu/Desktop/RockboxRCC/bu800/firmware/libfirmware.a(lcd-16bit.o) (lcd_init_device)
/home/ubuntu/Desktop/RockboxRCC/bu800/firmware/libfirmware.a(button-android.o)
                              /home/ubuntu/Desktop/RockboxRCC/bu800/firmware/libfirmware.a(button.o) (button_init_device)
/home/ubuntu/Desktop/RockboxRCC/bu800/firmware/libfirmware.a(pcm-android.o)
                              /home/ubuntu/Desktop/RockboxRCC/bu800/apps/voice_thread.o (pcm_play_lock)
/home/ubuntu/Desktop/RockboxRCC/bu800/firmware/libfirmware.a(powermgmt-android.o)
                              /home/ubuntu/Desktop/RockboxRCC/bu800/firmware/libfirmware.a(powermgmt.o) (_battery_level)
/home/ubuntu/Desktop/RockboxRCC/bu800/firmware/libfirmware.a(system-android.o)
                              /home/ubuntu/Desktop/RockboxRCC/bu800/firmware/libfirmware.a(panic.o) (system_exception_wait)
/home/ubuntu/Desktop/RockboxRCC/bu800/firmware/libfirmware.a(telephony-android.o)
                              /home/ubuntu/Desktop/RockboxRCC/bu800/firmware/libfirmware.a(system-android.o) (telephony_init_device)
/home/ubuntu/Desktop/RockboxRCC/bu800/firmware/libfirmware.a(button-application.o)
                              /home/ubuntu/Desktop/RockboxRCC/bu800/apps/root_menu.o (android_ignore_back_button)
/home/ubuntu/Desktop/RockboxRCC/bu800/firmware/libfirmware.a(android.o)
                              /home/ubuntu/Desktop/RockboxRCC/bu800/firmware/libfirmware.a(sound.o) (audiohw_set_volume)
/home/ubuntu/Desktop/RockboxRCC/bu800/firmware/libfirmware.a(mutex.o)
                              /home/ubuntu/Desktop/RockboxRCC/bu800/apps/buffering.o (mutex_init)
/home/ubuntu/Desktop/RockboxRCC/bu800/firmware/libfirmware.a(queue.o)
                              /home/ubuntu/Desktop/RockboxRCC/bu800/apps/buffering.o (queue_enable_queue_send)
/home/ubuntu/Desktop/RockboxRCC/bu800/firmware/libfirmware.a(semaphore.o)
                              /home/ubuntu/Desktop/RockboxRCC/bu800/apps/plugin.o (semaphore_init)
/home/ubuntu/Desktop/RockboxRCC/bu800/firmware/libfirmware.a(thread.o)
                              /home/ubuntu/Desktop/RockboxRCC/bu800/apps/debug_menu.o (threads)
/home/ubuntu/Desktop/RockboxRCC/bu800/firmware/libfirmware.a(tick.o)
                              /home/ubuntu/Desktop/RockboxRCC/bu800/apps/debug_menu.o (tick_add_task)
/home/ubuntu/Desktop/RockboxRCC/bu800/firmware/libfirmware.a(timeout.o)
                              /home/ubuntu/Desktop/RockboxRCC/bu800/apps/gui/bitmap/list.o (timeout_cancel)
/home/ubuntu/Desktop/RockboxRCC/bu800/firmware/libfirmware.a(sysfont.o)
                              /home/ubuntu/Desktop/RockboxRCC/bu800/firmware/libfirmware.a(font.o) (sysfont)
/home/ubuntu/Desktop/RockboxRCC/bu800/firmware/libfirmware.a(ffs.o)
                              /home/ubuntu/Desktop/RockboxRCC/bu800/firmware/libfirmware.a(thread.o) (find_first_set_bit)
/home/ubuntu/Desktop/RockboxRCC/bu800/firmware/libfirmware.a(memset16.o)
                              /home/ubuntu/Desktop/RockboxRCC/bu800/firmware/libfirmware.a(lcd-16bit.o) (memset16)
/home/ubuntu/Desktop/RockboxRCC/bu800/firmware/libfirmware.a(rtc.o)
                              /home/ubuntu/Desktop/RockboxRCC/bu800/firmware/libfirmware.a(timefuncs.o) (rtc_read_datetime)
/home/ubuntu/Desktop/RockboxRCC/bu800/firmware/libfirmware.a(arabjoin.o)
                              /home/ubuntu/Desktop/RockboxRCC/bu800/firmware/libfirmware.a(bidi.o) (jointable)
/home/ubuntu/Desktop/RockboxRCC/bu800/firmware/libfirmware.a(font_cache.o)
                              /home/ubuntu/Desktop/RockboxRCC/bu800/firmware/libfirmware.a(font.o) (font_cache_create)
/home/ubuntu/Desktop/RockboxRCC/bu800/lib/rbcodec/codecs/libspeex-voice.a(bits.o)
                              /home/ubuntu/Desktop/RockboxRCC/bu800/apps/voice_thread.o (speex_bits_set_bit_buffer)
/home/ubuntu/Desktop/RockboxRCC/bu800/lib/rbcodec/codecs/libspeex-voice.a(modes_wb.o)
                              /home/ubuntu/Desktop/RockboxRCC/bu800/apps/voice_thread.o (speex_wb_mode)
/home/ubuntu/Desktop/RockboxRCC/bu800/lib/rbcodec/codecs/libspeex-voice.a(quant_lsp.o)
                              /home/ubuntu/Desktop/RockboxRCC/bu800/lib/rbcodec/codecs/libspeex-voice.a(modes_wb.o) (lsp_unquant_high)
/home/ubuntu/Desktop/RockboxRCC/bu800/lib/rbcodec/codecs/libspeex-voice.a(sb_celp.o)
                              /home/ubuntu/Desktop/RockboxRCC/bu800/lib/rbcodec/codecs/libspeex-voice.a(modes_wb.o) (sb_decoder_init)
/home/ubuntu/Desktop/RockboxRCC/bu800/lib/rbcodec/codecs/libspeex-voice.a(speex.o)
                              /home/ubuntu/Desktop/RockboxRCC/bu800/apps/voice_thread.o (speex_decoder_init)
/home/ubuntu/Desktop/RockboxRCC/bu800/lib/rbcodec/codecs/libspeex-voice.a(filters_arm4.o)
                              /home/ubuntu/Desktop/RockboxRCC/bu800/lib/rbcodec/codecs/libspeex-voice.a(sb_celp.o) (iir_mem16)
/home/ubuntu/Desktop/RockboxRCC/bu800/lib/rbcodec/codecs/libspeex-voice.a(cb_search.o)
                              /home/ubuntu/Desktop/RockboxRCC/bu800/lib/rbcodec/codecs/libspeex-voice.a(modes_wb.o) (split_cb_shape_sign_unquant)
/home/ubuntu/Desktop/RockboxRCC/bu800/lib/rbcodec/codecs/libspeex-voice.a(filters.o)
                              /home/ubuntu/Desktop/RockboxRCC/bu800/lib/rbcodec/codecs/libspeex-voice.a(sb_celp.o) (compute_rms16)
/home/ubuntu/Desktop/RockboxRCC/bu800/lib/rbcodec/codecs/libspeex-voice.a(hexc_10_32_table.o)
                              /home/ubuntu/Desktop/RockboxRCC/bu800/lib/rbcodec/codecs/libspeex-voice.a(modes_wb.o) (hexc_10_32_table)
/home/ubuntu/Desktop/RockboxRCC/bu800/lib/rbcodec/codecs/libspeex-voice.a(hexc_table.o)
                              /home/ubuntu/Desktop/RockboxRCC/bu800/lib/rbcodec/codecs/libspeex-voice.a(modes_wb.o) (hexc_table)
/home/ubuntu/Desktop/RockboxRCC/bu800/lib/rbcodec/codecs/libspeex-voice.a(high_lsp_tables.o)
                              /home/ubuntu/Desktop/RockboxRCC/bu800/lib/rbcodec/codecs/libspeex-voice.a(quant_lsp.o) (high_lsp_cdbk2)
/home/ubuntu/Desktop/RockboxRCC/bu800/lib/rbcodec/codecs/libspeex-voice.a(lsp.o)
                              /home/ubuntu/Desktop/RockboxRCC/bu800/lib/rbcodec/codecs/libspeex-voice.a(sb_celp.o) (lsp_to_lpc)
/home/ubuntu/Desktop/RockboxRCC/bu800/lib/rbcodec/codecs/libspeex-voice.a(lsp_tables_nb.o)
                              /home/ubuntu/Desktop/RockboxRCC/bu800/lib/rbcodec/codecs/libspeex-voice.a(quant_lsp.o) (cdbk_nb_high2)
/home/ubuntu/Desktop/RockboxRCC/bu800/lib/rbcodec/codecs/libspeex-voice.a(ltp.o)
                              /home/ubuntu/Desktop/RockboxRCC/bu800/lib/rbcodec/codecs/libspeex-voice.a(filters.o) (inner_prod)
/home/ubuntu/Desktop/RockboxRCC/bu800/lib/rbcodec/codecs/libspeex-voice.a(modes.o)
                              /home/ubuntu/Desktop/RockboxRCC/bu800/lib/rbcodec/codecs/libspeex-voice.a(modes_wb.o) (speex_nb_mode)
/home/ubuntu/Desktop/RockboxRCC/bu800/lib/rbcodec/codecs/libspeex-voice.a(nb_celp.o)
                              /home/ubuntu/Desktop/RockboxRCC/bu800/lib/rbcodec/codecs/libspeex-voice.a(modes.o) (nb_decoder_init)
/home/ubuntu/Desktop/RockboxRCC/bu800/lib/rbcodec/codecs/libspeex-voice.a(speex_callbacks.o)
                              /home/ubuntu/Desktop/RockboxRCC/bu800/lib/rbcodec/codecs/libspeex-voice.a(nb_celp.o) (speex_inband_handler)
/home/ubuntu/Desktop/RockboxRCC/bu800/lib/rbcodec/codecs/libspeex-voice.a(exc_10_16_table.o)
                              /home/ubuntu/Desktop/RockboxRCC/bu800/lib/rbcodec/codecs/libspeex-voice.a(modes.o) (exc_10_16_table)
/home/ubuntu/Desktop/RockboxRCC/bu800/lib/rbcodec/codecs/libspeex-voice.a(exc_10_32_table.o)
                              /home/ubuntu/Desktop/RockboxRCC/bu800/lib/rbcodec/codecs/libspeex-voice.a(modes.o) (exc_10_32_table)
/home/ubuntu/Desktop/RockboxRCC/bu800/lib/rbcodec/codecs/libspeex-voice.a(exc_20_32_table.o)
                              /home/ubuntu/Desktop/RockboxRCC/bu800/lib/rbcodec/codecs/libspeex-voice.a(modes.o) (exc_20_32_table)
/home/ubuntu/Desktop/RockboxRCC/bu800/lib/rbcodec/codecs/libspeex-voice.a(exc_5_256_table.o)
                              /home/ubuntu/Desktop/RockboxRCC/bu800/lib/rbcodec/codecs/libspeex-voice.a(modes.o) (exc_5_256_table)
/home/ubuntu/Desktop/RockboxRCC/bu800/lib/rbcodec/codecs/libspeex-voice.a(exc_5_64_table.o)
                              /home/ubuntu/Desktop/RockboxRCC/bu800/lib/rbcodec/codecs/libspeex-voice.a(modes.o) (exc_5_64_table)
/home/ubuntu/Desktop/RockboxRCC/bu800/lib/rbcodec/codecs/libspeex-voice.a(exc_8_128_table.o)
                              /home/ubuntu/Desktop/RockboxRCC/bu800/lib/rbcodec/codecs/libspeex-voice.a(modes.o) (exc_8_128_table)
/home/ubuntu/Desktop/RockboxRCC/bu800/lib/rbcodec/codecs/libspeex-voice.a(gain_table.o)
                              /home/ubuntu/Desktop/RockboxRCC/bu800/lib/rbcodec/codecs/libspeex-voice.a(modes.o) (gain_cdbk_nb)
/home/ubuntu/Desktop/RockboxRCC/bu800/lib/rbcodec/codecs/libspeex-voice.a(gain_table_lbr.o)
                              /home/ubuntu/Desktop/RockboxRCC/bu800/lib/rbcodec/codecs/libspeex-voice.a(modes.o) (gain_cdbk_lbr)
/home/ubuntu/Desktop/RockboxRCC/bu800/lib/librbcodec.a(metadata.o)
                              /home/ubuntu/Desktop/RockboxRCC/bu800/apps/playback.o (get_audio_base_codec_type)
/home/ubuntu/Desktop/RockboxRCC/bu800/lib/librbcodec.a(id3tags.o)
                              /home/ubuntu/Desktop/RockboxRCC/bu800/lib/librbcodec.a(metadata.o) (id3_get_num_genre)
/home/ubuntu/Desktop/RockboxRCC/bu800/lib/librbcodec.a(mp3.o)
                              /home/ubuntu/Desktop/RockboxRCC/bu800/lib/librbcodec.a(metadata.o) (get_mp3_metadata)
/home/ubuntu/Desktop/RockboxRCC/bu800/lib/librbcodec.a(mp3data.o)
                              /home/ubuntu/Desktop/RockboxRCC/bu800/lib/librbcodec.a(id3tags.o) (bytes2int)
/home/ubuntu/Desktop/RockboxRCC/bu800/lib/librbcodec.a(channel_mode.o)
                              /home/ubuntu/Desktop/RockboxRCC/bu800/firmware/libfirmware.a(audiohw-swcodec.o) (channel_mode_set_config)
/home/ubuntu/Desktop/RockboxRCC/bu800/lib/librbcodec.a(compressor.o)
                              /home/ubuntu/Desktop/RockboxRCC/bu800/apps/settings.o (dsp_set_compressor)
/home/ubuntu/Desktop/RockboxRCC/bu800/lib/librbcodec.a(crossfeed.o)
                              /home/ubuntu/Desktop/RockboxRCC/bu800/apps/plugin.o (dsp_set_crossfeed_type)
/home/ubuntu/Desktop/RockboxRCC/bu800/lib/librbcodec.a(emu10k_space80.o)
                              /home/ubuntu/Desktop/RockboxRCC/bu800/apps/plugin.o (dsp_set_space80_enable)
/home/ubuntu/Desktop/RockboxRCC/bu800/lib/librbcodec.a(dsp_core.o)
                              /home/ubuntu/Desktop/RockboxRCC/bu800/lib/librbcodec.a(channel_mode.o) (dsp_proc_activate)
/home/ubuntu/Desktop/RockboxRCC/bu800/lib/librbcodec.a(surround.o)
                              /home/ubuntu/Desktop/RockboxRCC/bu800/apps/settings.o (dsp_surround_enable)
/home/ubuntu/Desktop/RockboxRCC/bu800/lib/librbcodec.a(aatube.o)
                              /home/ubuntu/Desktop/RockboxRCC/bu800/apps/settings.o (dsp_aatube_enable)
/home/ubuntu/Desktop/RockboxRCC/bu800/lib/librbcodec.a(dsp_filter.o)
                              /home/ubuntu/Desktop/RockboxRCC/bu800/lib/librbcodec.a(crossfeed.o) (filter_shelf_coefs)
/home/ubuntu/Desktop/RockboxRCC/bu800/lib/librbcodec.a(dsp_misc.o)
                              /home/ubuntu/Desktop/RockboxRCC/bu800/apps/misc.o (dsp_replaygain_set_settings)
/home/ubuntu/Desktop/RockboxRCC/bu800/lib/librbcodec.a(dsp_sample_input.o)
                              /home/ubuntu/Desktop/RockboxRCC/bu800/lib/librbcodec.a(dsp_core.o) (dsp_sample_input_format_change)
/home/ubuntu/Desktop/RockboxRCC/bu800/lib/librbcodec.a(dsp_sample_output.o)
                              /home/ubuntu/Desktop/RockboxRCC/bu800/lib/librbcodec.a(dsp_core.o) (dsp_sample_output_format_change)
/home/ubuntu/Desktop/RockboxRCC/bu800/lib/librbcodec.a(eq.o)
                              /home/ubuntu/Desktop/RockboxRCC/bu800/apps/menus/eq_menu.o (dsp_set_eq_precut)
/home/ubuntu/Desktop/RockboxRCC/bu800/lib/librbcodec.a(resample.o)
                              /home/ubuntu/Desktop/RockboxRCC/bu800/lib/librbcodec.a(dsp_core.o) (RESAMPLE_proc_db_entry)
/home/ubuntu/Desktop/RockboxRCC/bu800/lib/librbcodec.a(pga.o)
                              /home/ubuntu/Desktop/RockboxRCC/bu800/lib/librbcodec.a(dsp_misc.o) (pga_set_gain)
/home/ubuntu/Desktop/RockboxRCC/bu800/lib/librbcodec.a(tdspeed.o)
                              /home/ubuntu/Desktop/RockboxRCC/bu800/apps/settings.o (dsp_timestretch_enable)
/home/ubuntu/Desktop/RockboxRCC/bu800/lib/librbcodec.a(tone_controls.o)
                              /home/ubuntu/Desktop/RockboxRCC/bu800/firmware/libfirmware.a(audiohw-swcodec.o) (tone_set_prescale)
/home/ubuntu/Desktop/RockboxRCC/bu800/lib/librbcodec.a(dsp_arm.o)
                              /home/ubuntu/Desktop/RockboxRCC/bu800/lib/librbcodec.a(channel_mode.o) (channel_mode_proc_mono)
/home/ubuntu/Desktop/RockboxRCC/bu800/lib/librbcodec.a(replaygain.o)
                              /home/ubuntu/Desktop/RockboxRCC/bu800/apps/screens.o (replaygain_itoa)
/home/ubuntu/Desktop/RockboxRCC/bu800/lib/librbcodec.a(metadata_common.o)
                              /home/ubuntu/Desktop/RockboxRCC/bu800/lib/librbcodec.a(metadata.o) (get_long_le)
/home/ubuntu/Desktop/RockboxRCC/bu800/lib/librbcodec.a(a52.o)
                              /home/ubuntu/Desktop/RockboxRCC/bu800/lib/librbcodec.a(metadata.o) (get_a52_metadata)
/home/ubuntu/Desktop/RockboxRCC/bu800/lib/librbcodec.a(adx.o)
                              /home/ubuntu/Desktop/RockboxRCC/bu800/lib/librbcodec.a(metadata.o) (get_adx_metadata)
/home/ubuntu/Desktop/RockboxRCC/bu800/lib/librbcodec.a(aiff.o)
                              /home/ubuntu/Desktop/RockboxRCC/bu800/lib/librbcodec.a(metadata.o) (get_aiff_metadata)
/home/ubuntu/Desktop/RockboxRCC/bu800/lib/librbcodec.a(asap.o)
                              /home/ubuntu/Desktop/RockboxRCC/bu800/lib/librbcodec.a(metadata.o) (get_asap_metadata)
/home/ubuntu/Desktop/RockboxRCC/bu800/lib/librbcodec.a(asf.o)
                              /home/ubuntu/Desktop/RockboxRCC/bu800/lib/librbcodec.a(metadata.o) (get_asf_metadata)
/home/ubuntu/Desktop/RockboxRCC/bu800/lib/librbcodec.a(au.o)
                              /home/ubuntu/Desktop/RockboxRCC/bu800/lib/librbcodec.a(metadata.o) (get_au_metadata)
/home/ubuntu/Desktop/RockboxRCC/bu800/lib/librbcodec.a(ay.o)
                              /home/ubuntu/Desktop/RockboxRCC/bu800/lib/librbcodec.a(metadata.o) (get_ay_metadata)
/home/ubuntu/Desktop/RockboxRCC/bu800/lib/librbcodec.a(flac.o)
                              /home/ubuntu/Desktop/RockboxRCC/bu800/lib/librbcodec.a(metadata.o) (get_flac_metadata)
/home/ubuntu/Desktop/RockboxRCC/bu800/lib/librbcodec.a(gbs.o)
                              /home/ubuntu/Desktop/RockboxRCC/bu800/lib/librbcodec.a(metadata.o) (get_gbs_metadata)
/home/ubuntu/Desktop/RockboxRCC/bu800/lib/librbcodec.a(hes.o)
                              /home/ubuntu/Desktop/RockboxRCC/bu800/lib/librbcodec.a(metadata.o) (get_hes_metadata)
/home/ubuntu/Desktop/RockboxRCC/bu800/lib/librbcodec.a(kss.o)
                              /home/ubuntu/Desktop/RockboxRCC/bu800/lib/librbcodec.a(metadata.o) (get_kss_metadata)
/home/ubuntu/Desktop/RockboxRCC/bu800/lib/librbcodec.a(mod.o)
                              /home/ubuntu/Desktop/RockboxRCC/bu800/lib/librbcodec.a(metadata.o) (get_mod_metadata)
/home/ubuntu/Desktop/RockboxRCC/bu800/lib/librbcodec.a(monkeys.o)
                              /home/ubuntu/Desktop/RockboxRCC/bu800/lib/librbcodec.a(metadata.o) (get_monkeys_metadata)
/home/ubuntu/Desktop/RockboxRCC/bu800/lib/librbcodec.a(mp4.o)
                              /home/ubuntu/Desktop/RockboxRCC/bu800/lib/librbcodec.a(metadata.o) (get_mp4_metadata)
/home/ubuntu/Desktop/RockboxRCC/bu800/lib/librbcodec.a(mpc.o)
                              /home/ubuntu/Desktop/RockboxRCC/bu800/lib/librbcodec.a(metadata.o) (get_musepack_metadata)
/home/ubuntu/Desktop/RockboxRCC/bu800/lib/librbcodec.a(nsf.o)
                              /home/ubuntu/Desktop/RockboxRCC/bu800/lib/librbcodec.a(metadata.o) (get_nsf_metadata)
/home/ubuntu/Desktop/RockboxRCC/bu800/lib/librbcodec.a(ogg.o)
                              /home/ubuntu/Desktop/RockboxRCC/bu800/lib/librbcodec.a(metadata.o) (get_ogg_metadata)
/home/ubuntu/Desktop/RockboxRCC/bu800/lib/librbcodec.a(oma.o)
                              /home/ubuntu/Desktop/RockboxRCC/bu800/lib/librbcodec.a(metadata.o) (get_oma_metadata)
/home/ubuntu/Desktop/RockboxRCC/bu800/lib/librbcodec.a(rm.o)
                              /home/ubuntu/Desktop/RockboxRCC/bu800/lib/librbcodec.a(metadata.o) (get_rm_metadata)
/home/ubuntu/Desktop/RockboxRCC/bu800/lib/librbcodec.a(sgc.o)
                              /home/ubuntu/Desktop/RockboxRCC/bu800/lib/librbcodec.a(metadata.o) (get_sgc_metadata)
/home/ubuntu/Desktop/RockboxRCC/bu800/lib/librbcodec.a(sid.o)
                              /home/ubuntu/Desktop/RockboxRCC/bu800/lib/librbcodec.a(metadata.o) (get_sid_metadata)
/home/ubuntu/Desktop/RockboxRCC/bu800/lib/librbcodec.a(smaf.o)
                              /home/ubuntu/Desktop/RockboxRCC/bu800/lib/librbcodec.a(metadata.o) (get_smaf_metadata)
/home/ubuntu/Desktop/RockboxRCC/bu800/lib/librbcodec.a(spc.o)
                              /home/ubuntu/Desktop/RockboxRCC/bu800/lib/librbcodec.a(metadata.o) (get_spc_metadata)
/home/ubuntu/Desktop/RockboxRCC/bu800/lib/librbcodec.a(tta.o)
                              /home/ubuntu/Desktop/RockboxRCC/bu800/lib/librbcodec.a(metadata.o) (get_tta_metadata)
/home/ubuntu/Desktop/RockboxRCC/bu800/lib/librbcodec.a(vgm.o)
                              /home/ubuntu/Desktop/RockboxRCC/bu800/lib/librbcodec.a(metadata.o) (get_vgm_metadata)
/home/ubuntu/Desktop/RockboxRCC/bu800/lib/librbcodec.a(vorbis.o)
                              /home/ubuntu/Desktop/RockboxRCC/bu800/lib/librbcodec.a(flac.o) (read_vorbis_tags)
/home/ubuntu/Desktop/RockboxRCC/bu800/lib/librbcodec.a(vox.o)
                              /home/ubuntu/Desktop/RockboxRCC/bu800/lib/librbcodec.a(metadata.o) (get_vox_metadata)
/home/ubuntu/Desktop/RockboxRCC/bu800/lib/librbcodec.a(wave.o)
                              /home/ubuntu/Desktop/RockboxRCC/bu800/lib/librbcodec.a(metadata.o) (get_wave_metadata)
/home/ubuntu/Desktop/RockboxRCC/bu800/lib/librbcodec.a(wavpack.o)
                              /home/ubuntu/Desktop/RockboxRCC/bu800/lib/librbcodec.a(metadata.o) (get_wavpack_metadata)
/home/ubuntu/Desktop/RockboxRCC/bu800/lib/librbcodec.a(emu10k_core.o)
                              /home/ubuntu/Desktop/RockboxRCC/bu800/lib/librbcodec.a(emu10k_space80.o) (emu10k_log15)
/home/ubuntu/Desktop/RockboxRCC/bu800/lib/librbcodec.a(ape.o)
                              /home/ubuntu/Desktop/RockboxRCC/bu800/lib/librbcodec.a(monkeys.o) (read_ape_tags)
/home/ubuntu/Desktop/RockboxRCC/bu800/lib/libunwarminder.a(backtrace.o)
                              /home/ubuntu/Desktop/RockboxRCC/bu800/firmware/libfirmware.a(panic.o) (backtrace)
/home/ubuntu/Desktop/RockboxRCC/bu800/lib/libunwarminder.a(unwarminder.o)
                              /home/ubuntu/Desktop/RockboxRCC/bu800/lib/libunwarminder.a(backtrace.o) (UnwindStart)
/home/ubuntu/Desktop/RockboxRCC/bu800/lib/libunwarminder.a(unwarm_thumb.o)
                              /home/ubuntu/Desktop/RockboxRCC/bu800/lib/libunwarminder.a(unwarminder.o) (UnwStartThumb)
/home/ubuntu/Desktop/RockboxRCC/bu800/lib/libunwarminder.a(safe_read.o)
                              /home/ubuntu/Desktop/RockboxRCC/bu800/lib/libunwarminder.a(backtrace.o) (safe_read8)
/home/ubuntu/Desktop/RockboxRCC/bu800/lib/libunwarminder.a(unwarm_arm.o)
                              /home/ubuntu/Desktop/RockboxRCC/bu800/lib/libunwarminder.a(unwarminder.o) (UnwStartArm)
/home/ubuntu/Desktop/RockboxRCC/bu800/lib/libunwarminder.a(unwarm.o)
                              /home/ubuntu/Desktop/RockboxRCC/bu800/lib/libunwarminder.a(unwarm_thumb.o) (UnwInvalidateRegisterFile)
/home/ubuntu/Desktop/RockboxRCC/bu800/lib/libunwarminder.a(unwarmmem.o)
                              /home/ubuntu/Desktop/RockboxRCC/bu800/lib/libunwarminder.a(unwarm.o) (UnwMemHashRead)
/home/ubuntu/Desktop/RockboxRCC/bu800/lib/libskin_parser.a(skin_buffer.o)
                              /home/ubuntu/Desktop/RockboxRCC/bu800/apps/gui/skin_engine/skin_parser.o (skin_buffer_init)
/home/ubuntu/Desktop/RockboxRCC/bu800/lib/libskin_parser.a(skin_parser.o)
                              /home/ubuntu/Desktop/RockboxRCC/bu800/apps/gui/skin_engine/skin_parser.o (skin_parse)
/home/ubuntu/Desktop/RockboxRCC/bu800/lib/libskin_parser.a(skin_scan.o)
                              /home/ubuntu/Desktop/RockboxRCC/bu800/lib/libskin_parser.a(skin_parser.o) (skip_comment)
/home/ubuntu/Desktop/RockboxRCC/bu800/lib/libskin_parser.a(tag_table.o)
                              /home/ubuntu/Desktop/RockboxRCC/bu800/lib/libskin_parser.a(skin_parser.o) (find_tag)
/home/ubuntu/Desktop/RockboxRCC/bu800/lib/libfixedpoint.a(fixedpoint.o)
                              /home/ubuntu/Desktop/RockboxRCC/bu800/lib/librbcodec.a(dsp_filter.o) (fp_sincos)
/home/ubuntu/android-ndk-r9c/toolchains/arm-linux-androideabi-4.6/prebuilt/linux-x86/bin/../lib/gcc/arm-linux-androideabi/4.6/libgcc.a(_udivsi3.o)
                              /home/ubuntu/Desktop/RockboxRCC/bu800/apps/debug_menu.o (__aeabi_uidiv)
/home/ubuntu/android-ndk-r9c/toolchains/arm-linux-androideabi-4.6/prebuilt/linux-x86/bin/../lib/gcc/arm-linux-androideabi/4.6/libgcc.a(_divsi3.o)
                              /home/ubuntu/Desktop/RockboxRCC/bu800/apps/debug_menu.o (__aeabi_idiv)
/home/ubuntu/android-ndk-r9c/toolchains/arm-linux-androideabi-4.6/prebuilt/linux-x86/bin/../lib/gcc/arm-linux-androideabi/4.6/libgcc.a(_arm_addsubdf3.o)
                              /home/ubuntu/Desktop/RockboxRCC/bu800/lib/librbcodec.a(aatube.o) (__aeabi_dsub)
/home/ubuntu/android-ndk-r9c/toolchains/arm-linux-androideabi-4.6/prebuilt/linux-x86/bin/../lib/gcc/arm-linux-androideabi/4.6/libgcc.a(_arm_muldivdf3.o)
                              /home/ubuntu/Desktop/RockboxRCC/bu800/lib/librbcodec.a(aatube.o) (__aeabi_dmul)
/home/ubuntu/android-ndk-r9c/toolchains/arm-linux-androideabi-4.6/prebuilt/linux-x86/bin/../lib/gcc/arm-linux-androideabi/4.6/libgcc.a(_arm_truncdfsf2.o)
                              /home/ubuntu/Desktop/RockboxRCC/bu800/lib/librbcodec.a(aatube.o) (__aeabi_d2f)
/home/ubuntu/android-ndk-r9c/toolchains/arm-linux-androideabi-4.6/prebuilt/linux-x86/bin/../lib/gcc/arm-linux-androideabi/4.6/libgcc.a(_arm_addsubsf3.o)
                              /home/ubuntu/Desktop/RockboxRCC/bu800/lib/librbcodec.a(aatube.o) (__aeabi_fadd)
/home/ubuntu/android-ndk-r9c/toolchains/arm-linux-androideabi-4.6/prebuilt/linux-x86/bin/../lib/gcc/arm-linux-androideabi/4.6/libgcc.a(_arm_muldivsf3.o)
                              /home/ubuntu/Desktop/RockboxRCC/bu800/lib/librbcodec.a(aatube.o) (__aeabi_fmul)
/home/ubuntu/android-ndk-r9c/toolchains/arm-linux-androideabi-4.6/prebuilt/linux-x86/bin/../lib/gcc/arm-linux-androideabi/4.6/libgcc.a(_arm_fixsfsi.o)
                              /home/ubuntu/Desktop/RockboxRCC/bu800/lib/librbcodec.a(aatube.o) (__aeabi_f2iz)
/home/ubuntu/android-ndk-r9c/toolchains/arm-linux-androideabi-4.6/prebuilt/linux-x86/bin/../lib/gcc/arm-linux-androideabi/4.6/libgcc.a(_aeabi_ldivmod.o)
                              /home/ubuntu/Desktop/RockboxRCC/bu800/apps/beep.o (__aeabi_ldivmod)
/home/ubuntu/android-ndk-r9c/toolchains/arm-linux-androideabi-4.6/prebuilt/linux-x86/bin/../lib/gcc/arm-linux-androideabi/4.6/libgcc.a(_aeabi_uldivmod.o)
                              /home/ubuntu/Desktop/RockboxRCC/bu800/lib/librbcodec.a(asf.o) (__aeabi_uldivmod)
/home/ubuntu/android-ndk-r9c/toolchains/arm-linux-androideabi-4.6/prebuilt/linux-x86/bin/../lib/gcc/arm-linux-androideabi/4.6/libgcc.a(_dvmd_lnx.o)
                              /home/ubuntu/android-ndk-r9c/toolchains/arm-linux-androideabi-4.6/prebuilt/linux-x86/bin/../lib/gcc/arm-linux-androideabi/4.6/libgcc.a(_udivsi3.o) (__aeabi_idiv0)
/home/ubuntu/android-ndk-r9c/toolchains/arm-linux-androideabi-4.6/prebuilt/linux-x86/bin/../lib/gcc/arm-linux-androideabi/4.6/libgcc.a(_popcountsi2.o)
                              /home/ubuntu/Desktop/RockboxRCC/bu800/cpu-features.o (__popcountsi2)
/home/ubuntu/android-ndk-r9c/toolchains/arm-linux-androideabi-4.6/prebuilt/linux-x86/bin/../lib/gcc/arm-linux-androideabi/4.6/libgcc.a(bpabi.o)
                              /home/ubuntu/android-ndk-r9c/toolchains/arm-linux-androideabi-4.6/prebuilt/linux-x86/bin/../lib/gcc/arm-linux-androideabi/4.6/libgcc.a(_aeabi_ldivmod.o) (__gnu_ldivmod_helper)
/home/ubuntu/android-ndk-r9c/toolchains/arm-linux-androideabi-4.6/prebuilt/linux-x86/bin/../lib/gcc/arm-linux-androideabi/4.6/libgcc.a(unwind-arm.o)
                              /home/ubuntu/android-ndk-r9c/toolchains/arm-linux-androideabi-4.6/prebuilt/linux-x86/bin/../lib/gcc/arm-linux-androideabi/4.6/libgcc.a(_popcountsi2.o) (__aeabi_unwind_cpp_pr0)
/home/ubuntu/android-ndk-r9c/toolchains/arm-linux-androideabi-4.6/prebuilt/linux-x86/bin/../lib/gcc/arm-linux-androideabi/4.6/libgcc.a(libunwind.o)
                              /home/ubuntu/android-ndk-r9c/toolchains/arm-linux-androideabi-4.6/prebuilt/linux-x86/bin/../lib/gcc/arm-linux-androideabi/4.6/libgcc.a(unwind-arm.o) (restore_core_regs)
/home/ubuntu/android-ndk-r9c/toolchains/arm-linux-androideabi-4.6/prebuilt/linux-x86/bin/../lib/gcc/arm-linux-androideabi/4.6/libgcc.a(pr-support.o)
                              /home/ubuntu/android-ndk-r9c/toolchains/arm-linux-androideabi-4.6/prebuilt/linux-x86/bin/../lib/gcc/arm-linux-androideabi/4.6/libgcc.a(unwind-arm.o) (__gnu_unwind_execute)
/home/ubuntu/android-ndk-r9c/toolchains/arm-linux-androideabi-4.6/prebuilt/linux-x86/bin/../lib/gcc/arm-linux-androideabi/4.6/libgcc.a(_popcount_tab.o)
                              /home/ubuntu/android-ndk-r9c/toolchains/arm-linux-androideabi-4.6/prebuilt/linux-x86/bin/../lib/gcc/arm-linux-androideabi/4.6/libgcc.a(_popcountsi2.o) (__popcount_tab)
/home/ubuntu/android-ndk-r9c/toolchains/arm-linux-androideabi-4.6/prebuilt/linux-x86/bin/../lib/gcc/arm-linux-androideabi/4.6/libgcc.a(_divdi3.o)
                              /home/ubuntu/android-ndk-r9c/toolchains/arm-linux-androideabi-4.6/prebuilt/linux-x86/bin/../lib/gcc/arm-linux-androideabi/4.6/libgcc.a(bpabi.o) (__divdi3)
/home/ubuntu/android-ndk-r9c/toolchains/arm-linux-androideabi-4.6/prebuilt/linux-x86/bin/../lib/gcc/arm-linux-androideabi/4.6/libgcc.a(_udivdi3.o)
                              /home/ubuntu/android-ndk-r9c/toolchains/arm-linux-androideabi-4.6/prebuilt/linux-x86/bin/../lib/gcc/arm-linux-androideabi/4.6/libgcc.a(bpabi.o) (__udivdi3)

Allocating common symbols
Common symbol       size              file

audiobuffer         0x1c40000         /home/ubuntu/Desktop/RockboxRCC/bu800/firmware/libfirmware.a(core_alloc.o)
lcd_static_framebuffer
                    0x1f4000          /home/ubuntu/Desktop/RockboxRCC/bu800/firmware/libfirmware.a(lcd-16bit.o)
threads             0x8c0             /home/ubuntu/Desktop/RockboxRCC/bu800/firmware/libfirmware.a(thread.o)
language_strings    0x8a0             /home/ubuntu/Desktop/RockboxRCC/bu800/lang/lang_core.o
global_settings     0x660             /home/ubuntu/Desktop/RockboxRCC/bu800/apps/settings.o
lastfile            0x208             /home/ubuntu/Desktop/RockboxRCC/bu800/apps/tree.o
audio_queue         0x94              /home/ubuntu/Desktop/RockboxRCC/bu800/apps/audio_thread.o
button_queue        0x94              /home/ubuntu/Desktop/RockboxRCC/bu800/firmware/libfirmware.a(button.o)
tree_lists          0x50              /home/ubuntu/Desktop/RockboxRCC/bu800/apps/tree.o
statusbars          0x4c              /home/ubuntu/Desktop/RockboxRCC/bu800/apps/gui/statusbar.o
global_status       0x28              /home/ubuntu/Desktop/RockboxRCC/bu800/apps/settings.o
tick_funcs          0x24              /home/ubuntu/Desktop/RockboxRCC/bu800/firmware/libfirmware.a(tick.o)
core_ctx            0x18              /home/ubuntu/Desktop/RockboxRCC/bu800/firmware/libfirmware.a(core_alloc.o)
percent_to_volt_charge
                    0x16              /home/ubuntu/Desktop/RockboxRCC/bu800/firmware/libfirmware.a(powermgmt.o)
root_menu_          0xc               /home/ubuntu/Desktop/RockboxRCC/bu800/apps/root_menu.o
RockboxService_class
                    0x4               /home/ubuntu/Desktop/RockboxRCC/bu800/firmware/libfirmware.a(system-android.o)
RockboxService_instance
                    0x4               /home/ubuntu/Desktop/RockboxRCC/bu800/firmware/libfirmware.a(system-android.o)
env_ptr             0x4               /home/ubuntu/Desktop/RockboxRCC/bu800/firmware/libfirmware.a(system-android.o)
global_timer_callback
                    0x4               /home/ubuntu/Desktop/RockboxRCC/bu800/firmware/libfirmware.a(kernel-unix.o)
global_unreg_callback
                    0x4               /home/ubuntu/Desktop/RockboxRCC/bu800/firmware/libfirmware.a(kernel-unix.o)
stackbegin          0x4               /home/ubuntu/Desktop/RockboxRCC/bu800/firmware/libfirmware.a(system-android.o)
stackend            0x4               /home/ubuntu/Desktop/RockboxRCC/bu800/firmware/libfirmware.a(system-android.o)
percent_to_volt_discharge
                    0x0               /home/ubuntu/Desktop/RockboxRCC/bu800/firmware/libfirmware.a(powermgmt.o)

Discarded input sections

 .note.GNU-stack
                0x00000000        0x0 /home/ubuntu/android-ndk-r9c/platforms/android-19/arch-arm/usr/lib/crtbegin_so.o
 .note.GNU-stack
                0x00000000        0x0 /home/ubuntu/Desktop/RockboxRCC/bu800/apps/action.o
 .note.GNU-stack
                0x00000000        0x0 /home/ubuntu/Desktop/RockboxRCC/bu800/apps/abrepeat.o
 .note.GNU-stack
                0x00000000        0x0 /home/ubuntu/Desktop/RockboxRCC/bu800/apps/bookmark.o
 .note.GNU-stack
                0x00000000        0x0 /home/ubuntu/Desktop/RockboxRCC/bu800/apps/debug_menu.o
 .note.GNU-stack
                0x00000000        0x0 /home/ubuntu/Desktop/RockboxRCC/bu800/apps/filetypes.o
 .note.GNU-stack
                0x00000000        0x0 /home/ubuntu/Desktop/RockboxRCC/bu800/apps/language.o
 .note.GNU-stack
                0x00000000        0x0 /home/ubuntu/Desktop/RockboxRCC/bu800/apps/main.o
 .note.GNU-stack
                0x00000000        0x0 /home/ubuntu/Desktop/RockboxRCC/bu800/apps/menu.o
 .note.GNU-stack
                0x00000000        0x0 /home/ubuntu/Desktop/RockboxRCC/bu800/apps/menus/menu_common.o
 .note.GNU-stack
                0x00000000        0x0 /home/ubuntu/Desktop/RockboxRCC/bu800/apps/menus/display_menu.o
 .note.GNU-stack
                0x00000000        0x0 /home/ubuntu/Desktop/RockboxRCC/bu800/apps/menus/theme_menu.o
 .note.GNU-stack
                0x00000000        0x0 /home/ubuntu/Desktop/RockboxRCC/bu800/apps/menus/plugin_menu.o
 .note.GNU-stack
                0x00000000        0x0 /home/ubuntu/Desktop/RockboxRCC/bu800/apps/menus/eq_menu.o
 .note.GNU-stack
                0x00000000        0x0 /home/ubuntu/Desktop/RockboxRCC/bu800/apps/buffering.o
 .note.GNU-stack
                0x00000000        0x0 /home/ubuntu/Desktop/RockboxRCC/bu800/apps/voice_thread.o
 .note.GNU-stack
                0x00000000        0x0 /home/ubuntu/Desktop/RockboxRCC/bu800/apps/rbcodec_helpers.o
 .note.GNU-stack
                0x00000000        0x0 /home/ubuntu/Desktop/RockboxRCC/bu800/apps/menus/main_menu.o
 .note.GNU-stack
                0x00000000        0x0 /home/ubuntu/Desktop/RockboxRCC/bu800/apps/menus/playback_menu.o
 .note.GNU-stack
                0x00000000        0x0 /home/ubuntu/Desktop/RockboxRCC/bu800/apps/menus/playlist_menu.o
 .note.GNU-stack
                0x00000000        0x0 /home/ubuntu/Desktop/RockboxRCC/bu800/apps/menus/settings_menu.o
 .note.GNU-stack
                0x00000000        0x0 /home/ubuntu/Desktop/RockboxRCC/bu800/apps/menus/sound_menu.o
 .note.GNU-stack
                0x00000000        0x0 /home/ubuntu/Desktop/RockboxRCC/bu800/apps/menus/time_menu.o
 .note.GNU-stack
                0x00000000        0x0 /home/ubuntu/Desktop/RockboxRCC/bu800/apps/misc.o
 .note.GNU-stack
                0x00000000        0x0 /home/ubuntu/Desktop/RockboxRCC/bu800/apps/onplay.o
 .note.GNU-stack
                0x00000000        0x0 /home/ubuntu/Desktop/RockboxRCC/bu800/apps/playlist.o
 .note.GNU-stack
                0x00000000        0x0 /home/ubuntu/Desktop/RockboxRCC/bu800/apps/playlist_catalog.o
 .note.GNU-stack
                0x00000000        0x0 /home/ubuntu/Desktop/RockboxRCC/bu800/apps/playlist_viewer.o
 .note.GNU-stack
                0x00000000        0x0 /home/ubuntu/Desktop/RockboxRCC/bu800/apps/plugin.o
 .note.GNU-stack
                0x00000000        0x0 /home/ubuntu/Desktop/RockboxRCC/bu800/apps/root_menu.o
 .note.GNU-stack
                0x00000000        0x0 /home/ubuntu/Desktop/RockboxRCC/bu800/apps/screens.o
 .note.GNU-stack
                0x00000000        0x0 /home/ubuntu/Desktop/RockboxRCC/bu800/apps/settings.o
 .note.GNU-stack
                0x00000000        0x0 /home/ubuntu/Desktop/RockboxRCC/bu800/apps/settings_list.o
 .note.GNU-stack
                0x00000000        0x0 /home/ubuntu/Desktop/RockboxRCC/bu800/apps/shortcuts.o
 .note.GNU-stack
                0x00000000        0x0 /home/ubuntu/Desktop/RockboxRCC/bu800/apps/status.o
 .note.GNU-stack
                0x00000000        0x0 /home/ubuntu/Desktop/RockboxRCC/bu800/apps/cuesheet.o
 .note.GNU-stack
                0x00000000        0x0 /home/ubuntu/Desktop/RockboxRCC/bu800/apps/talk.o
 .note.GNU-stack
                0x00000000        0x0 /home/ubuntu/Desktop/RockboxRCC/bu800/apps/tree.o
 .note.GNU-stack
                0x00000000        0x0 /home/ubuntu/Desktop/RockboxRCC/bu800/apps/tagtree.o
 .note.GNU-stack
                0x00000000        0x0 /home/ubuntu/Desktop/RockboxRCC/bu800/apps/filetree.o
 .note.GNU-stack
                0x00000000        0x0 /home/ubuntu/Desktop/RockboxRCC/bu800/apps/scrobbler.o
 .note.GNU-stack
                0x00000000        0x0 /home/ubuntu/Desktop/RockboxRCC/bu800/apps/screen_access.o
 .note.GNU-stack
                0x00000000        0x0 /home/ubuntu/Desktop/RockboxRCC/bu800/apps/gui/icon.o
 .note.GNU-stack
                0x00000000        0x0 /home/ubuntu/Desktop/RockboxRCC/bu800/apps/gui/list.o
 .note.GNU-stack
                0x00000000        0x0 /home/ubuntu/Desktop/RockboxRCC/bu800/apps/gui/line.o
 .note.GNU-stack
                0x00000000        0x0 /home/ubuntu/Desktop/RockboxRCC/bu800/apps/gui/bitmap/list.o
 .note.GNU-stack
                0x00000000        0x0 /home/ubuntu/Desktop/RockboxRCC/bu800/apps/gui/bitmap/list-skinned.o
 .note.GNU-stack
                0x00000000        0x0 /home/ubuntu/Desktop/RockboxRCC/bu800/apps/gui/option_select.o
 .note.GNU-stack
                0x00000000        0x0 /home/ubuntu/Desktop/RockboxRCC/bu800/apps/gui/pitchscreen.o
 .note.GNU-stack
                0x00000000        0x0 /home/ubuntu/Desktop/RockboxRCC/bu800/apps/gui/quickscreen.o
 .note.GNU-stack
                0x00000000        0x0 /home/ubuntu/Desktop/RockboxRCC/bu800/apps/gui/folder_select.o
 .note.GNU-stack
                0x00000000        0x0 /home/ubuntu/Desktop/RockboxRCC/bu800/apps/gui/wps.o
 .note.GNU-stack
                0x00000000        0x0 /home/ubuntu/Desktop/RockboxRCC/bu800/apps/gui/scrollbar.o
 .note.GNU-stack
                0x00000000        0x0 /home/ubuntu/Desktop/RockboxRCC/bu800/apps/gui/splash.o
 .note.GNU-stack
                0x00000000        0x0 /home/ubuntu/Desktop/RockboxRCC/bu800/apps/gui/statusbar.o
 .note.GNU-stack
                0x00000000        0x0 /home/ubuntu/Desktop/RockboxRCC/bu800/apps/gui/statusbar-skinned.o
 .note.GNU-stack
                0x00000000        0x0 /home/ubuntu/Desktop/RockboxRCC/bu800/apps/hosted/android/yesno.o
 .note.GNU-stack
                0x00000000        0x0 /home/ubuntu/Desktop/RockboxRCC/bu800/apps/hosted/android/notification.o
 .note.GNU-stack
                0x00000000        0x0 /home/ubuntu/Desktop/RockboxRCC/bu800/apps/gui/viewport.o
 .note.GNU-stack
                0x00000000        0x0 /home/ubuntu/Desktop/RockboxRCC/bu800/apps/gui/skin_engine/skin_backdrops.o
 .note.GNU-stack
                0x00000000        0x0 /home/ubuntu/Desktop/RockboxRCC/bu800/apps/gui/skin_engine/skin_display.o
 .note.GNU-stack
                0x00000000        0x0 /home/ubuntu/Desktop/RockboxRCC/bu800/apps/gui/skin_engine/skin_engine.o
 .note.GNU-stack
                0x00000000        0x0 /home/ubuntu/Desktop/RockboxRCC/bu800/apps/gui/skin_engine/skin_parser.o
 .note.GNU-stack
                0x00000000        0x0 /home/ubuntu/Desktop/RockboxRCC/bu800/apps/gui/skin_engine/skin_render.o
 .note.GNU-stack
                0x00000000        0x0 /home/ubuntu/Desktop/RockboxRCC/bu800/apps/gui/skin_engine/skin_tokens.o
 .note.GNU-stack
                0x00000000        0x0 /home/ubuntu/Desktop/RockboxRCC/bu800/apps/gui/skin_engine/skin_touchsupport.o
 .note.GNU-stack
                0x00000000        0x0 /home/ubuntu/Desktop/RockboxRCC/bu800/apps/gui/backdrop.o
 .note.GNU-stack
                0x00000000        0x0 /home/ubuntu/Desktop/RockboxRCC/bu800/apps/recorder/bmp.o
 .note.GNU-stack
                0x00000000        0x0 /home/ubuntu/Desktop/RockboxRCC/bu800/apps/recorder/icons.o
 .note.GNU-stack
                0x00000000        0x0 /home/ubuntu/Desktop/RockboxRCC/bu800/apps/hosted/android/keyboard.o
 .note.GNU-stack
                0x00000000        0x0 /home/ubuntu/Desktop/RockboxRCC/bu800/apps/recorder/peakmeter.o
 .note.GNU-stack
                0x00000000        0x0 /home/ubuntu/Desktop/RockboxRCC/bu800/apps/recorder/resize.o
 .note.GNU-stack
                0x00000000        0x0 /home/ubuntu/Desktop/RockboxRCC/bu800/apps/recorder/jpeg_load.o
 .note.GNU-stack
                0x00000000        0x0 /home/ubuntu/Desktop/RockboxRCC/bu800/apps/recorder/jpeg_idct_arm.o
 .note.GNU-stack
                0x00000000        0x0 /home/ubuntu/Desktop/RockboxRCC/bu800/apps/recorder/albumart.o
 .note.GNU-stack
                0x00000000        0x0 /home/ubuntu/Desktop/RockboxRCC/bu800/apps/gui/color_picker.o
 .note.GNU-stack
                0x00000000        0x0 /home/ubuntu/Desktop/RockboxRCC/bu800/apps/audio_thread.o
 .note.GNU-stack
                0x00000000        0x0 /home/ubuntu/Desktop/RockboxRCC/bu800/apps/pcmbuf.o
 .note.GNU-stack
                0x00000000        0x0 /home/ubuntu/Desktop/RockboxRCC/bu800/apps/codec_thread.o
 .note.GNU-stack
                0x00000000        0x0 /home/ubuntu/Desktop/RockboxRCC/bu800/apps/playback.o
 .note.GNU-stack
                0x00000000        0x0 /home/ubuntu/Desktop/RockboxRCC/bu800/apps/codecs.o
 .note.GNU-stack
                0x00000000        0x0 /home/ubuntu/Desktop/RockboxRCC/bu800/apps/beep.o
 .note.GNU-stack
                0x00000000        0x0 /home/ubuntu/Desktop/RockboxRCC/bu800/apps/tagcache.o
 .note.GNU-stack
                0x00000000        0x0 /home/ubuntu/Desktop/RockboxRCC/bu800/apps/keymaps/keymap-touchscreen.o
 .note.GNU-stack
                0x00000000        0x0 /home/ubuntu/Desktop/RockboxRCC/bu800/apps/keymaps/keymap-android.o
 .note.GNU-stack
                0x00000000        0x0 /home/ubuntu/Desktop/RockboxRCC/bu800/apps/bitmaps/mono/default_icons.o
 .note.GNU-stack
                0x00000000        0x0 /home/ubuntu/Desktop/RockboxRCC/bu800/apps/bitmaps/native/rockboxlogo.640x198x16.o
 .note.GNU-stack
                0x00000000        0x0 /home/ubuntu/Desktop/RockboxRCC/bu800/apps/bitmaps/native/usblogo.176x48x16.o
 .note.GNU-stack
                0x00000000        0x0 /home/ubuntu/Desktop/RockboxRCC/bu800/lang/lang_core.o
 .note.GNU-stack
                0x00000000        0x0 /home/ubuntu/Desktop/RockboxRCC/bu800/firmware/libfirmware.a(ata_idle_notify.o)
 .note.GNU-stack
                0x00000000        0x0 /home/ubuntu/Desktop/RockboxRCC/bu800/firmware/libfirmware.a(events.o)
 .note.GNU-stack
                0x00000000        0x0 /home/ubuntu/Desktop/RockboxRCC/bu800/firmware/libfirmware.a(backlight.o)
 .note.GNU-stack
                0x00000000        0x0 /home/ubuntu/Desktop/RockboxRCC/bu800/firmware/libfirmware.a(buflib.o)
 .note.GNU-stack
                0x00000000        0x0 /home/ubuntu/Desktop/RockboxRCC/bu800/firmware/libfirmware.a(core_alloc.o)
 .note.GNU-stack
                0x00000000        0x0 /home/ubuntu/Desktop/RockboxRCC/bu800/firmware/libfirmware.a(general.o)
 .note.GNU-stack
                0x00000000        0x0 /home/ubuntu/Desktop/RockboxRCC/bu800/firmware/libfirmware.a(powermgmt.o)
 .note.GNU-stack
                0x00000000        0x0 /home/ubuntu/Desktop/RockboxRCC/bu800/firmware/libfirmware.a(cpuinfo-linux.o)
 .note.GNU-stack
                0x00000000        0x0 /home/ubuntu/Desktop/RockboxRCC/bu800/firmware/libfirmware.a(usb.o)
 .note.GNU-stack
                0x00000000        0x0 /home/ubuntu/Desktop/RockboxRCC/bu800/firmware/libfirmware.a(panic.o)
 .note.GNU-stack
                0x00000000        0x0 /home/ubuntu/Desktop/RockboxRCC/bu800/firmware/libfirmware.a(version.o)
 .note.GNU-stack
                0x00000000        0x0 /home/ubuntu/Desktop/RockboxRCC/bu800/firmware/libfirmware.a(crc32.o)
 .note.GNU-stack
                0x00000000        0x0 /home/ubuntu/Desktop/RockboxRCC/bu800/firmware/libfirmware.a(filefuncs.o)
 .note.GNU-stack
                0x00000000        0x0 /home/ubuntu/Desktop/RockboxRCC/bu800/firmware/libfirmware.a(format.o)
 .note.GNU-stack
                0x00000000        0x0 /home/ubuntu/Desktop/RockboxRCC/bu800/firmware/libfirmware.a(rbpaths.o)
 .note.GNU-stack
                0x00000000        0x0 /home/ubuntu/Desktop/RockboxRCC/bu800/firmware/libfirmware.a(strcasecmp.o)
 .note.GNU-stack
                0x00000000        0x0 /home/ubuntu/Desktop/RockboxRCC/bu800/firmware/libfirmware.a(strcasestr.o)
 .note.GNU-stack
                0x00000000        0x0 /home/ubuntu/Desktop/RockboxRCC/bu800/firmware/libfirmware.a(strnatcmp.o)
 .note.GNU-stack
                0x00000000        0x0 /home/ubuntu/Desktop/RockboxRCC/bu800/firmware/libfirmware.a(strlcat.o)
 .note.GNU-stack
                0x00000000        0x0 /home/ubuntu/Desktop/RockboxRCC/bu800/firmware/libfirmware.a(strlcpy.o)
 .note.GNU-stack
                0x00000000        0x0 /home/ubuntu/Desktop/RockboxRCC/bu800/firmware/libfirmware.a(structec.o)
 .note.GNU-stack
                0x00000000        0x0 /home/ubuntu/Desktop/RockboxRCC/bu800/firmware/libfirmware.a(timefuncs.o)
 .note.GNU-stack
                0x00000000        0x0 /home/ubuntu/Desktop/RockboxRCC/bu800/firmware/libfirmware.a(unicode.o)
 .note.GNU-stack
                0x00000000        0x0 /home/ubuntu/Desktop/RockboxRCC/bu800/firmware/libfirmware.a(scroll_engine.o)
 .note.GNU-stack
                0x00000000        0x0 /home/ubuntu/Desktop/RockboxRCC/bu800/firmware/libfirmware.a(bidi.o)
 .note.GNU-stack
                0x00000000        0x0 /home/ubuntu/Desktop/RockboxRCC/bu800/firmware/libfirmware.a(font.o)
 .note.GNU-stack
                0x00000000        0x0 /home/ubuntu/Desktop/RockboxRCC/bu800/firmware/libfirmware.a(lru.o)
 .note.GNU-stack
                0x00000000        0x0 /home/ubuntu/Desktop/RockboxRCC/bu800/firmware/libfirmware.a(screendump.o)
 .note.GNU-stack
                0x00000000        0x0 /home/ubuntu/Desktop/RockboxRCC/bu800/firmware/libfirmware.a(lcd-16bit.o)
 .note.GNU-stack
                0x00000000        0x0 /home/ubuntu/Desktop/RockboxRCC/bu800/firmware/libfirmware.a(diacritic.o)
 .note.GNU-stack
                0x00000000        0x0 /home/ubuntu/Desktop/RockboxRCC/bu800/firmware/libfirmware.a(led.o)
 .note.GNU-stack
                0x00000000        0x0 /home/ubuntu/Desktop/RockboxRCC/bu800/firmware/libfirmware.a(button.o)
 .note.GNU-stack
                0x00000000        0x0 /home/ubuntu/Desktop/RockboxRCC/bu800/firmware/libfirmware.a(touchscreen.o)
 .note.GNU-stack
                0x00000000        0x0 /home/ubuntu/Desktop/RockboxRCC/bu800/firmware/libfirmware.a(sound.o)
 .note.GNU-stack
                0x00000000        0x0 /home/ubuntu/Desktop/RockboxRCC/bu800/firmware/libfirmware.a(pcm_sampr.o)
 .note.GNU-stack
                0x00000000        0x0 /home/ubuntu/Desktop/RockboxRCC/bu800/firmware/libfirmware.a(pcm.o)
 .note.GNU-stack
                0x00000000        0x0 /home/ubuntu/Desktop/RockboxRCC/bu800/firmware/libfirmware.a(pcm_mixer.o)
 .note.GNU-stack
                0x00000000        0x0 /home/ubuntu/Desktop/RockboxRCC/bu800/firmware/libfirmware.a(audiohw-swcodec.o)
 .note.GNU-stack
                0x00000000        0x0 /home/ubuntu/Desktop/RockboxRCC/bu800/firmware/libfirmware.a(kernel-unix.o)
 .note.GNU-stack
                0x00000000        0x0 /home/ubuntu/Desktop/RockboxRCC/bu800/firmware/libfirmware.a(filesystem-unix.o)
 .note.GNU-stack
                0x00000000        0x0 /home/ubuntu/Desktop/RockboxRCC/bu800/firmware/libfirmware.a(lc-unix.o)
 .note.GNU-stack
                0x00000000        0x0 /home/ubuntu/Desktop/RockboxRCC/bu800/firmware/libfirmware.a(lcd-android.o)
 .note.GNU-stack
                0x00000000        0x0 /home/ubuntu/Desktop/RockboxRCC/bu800/firmware/libfirmware.a(button-android.o)
 .note.GNU-stack
                0x00000000        0x0 /home/ubuntu/Desktop/RockboxRCC/bu800/firmware/libfirmware.a(pcm-android.o)
 .note.GNU-stack
                0x00000000        0x0 /home/ubuntu/Desktop/RockboxRCC/bu800/firmware/libfirmware.a(powermgmt-android.o)
 .note.GNU-stack
                0x00000000        0x0 /home/ubuntu/Desktop/RockboxRCC/bu800/firmware/libfirmware.a(system-android.o)
 .note.GNU-stack
                0x00000000        0x0 /home/ubuntu/Desktop/RockboxRCC/bu800/firmware/libfirmware.a(telephony-android.o)
 .note.GNU-stack
                0x00000000        0x0 /home/ubuntu/Desktop/RockboxRCC/bu800/firmware/libfirmware.a(button-application.o)
 .note.GNU-stack
                0x00000000        0x0 /home/ubuntu/Desktop/RockboxRCC/bu800/firmware/libfirmware.a(android.o)
 .note.GNU-stack
                0x00000000        0x0 /home/ubuntu/Desktop/RockboxRCC/bu800/firmware/libfirmware.a(mutex.o)
 .note.GNU-stack
                0x00000000        0x0 /home/ubuntu/Desktop/RockboxRCC/bu800/firmware/libfirmware.a(queue.o)
 .note.GNU-stack
                0x00000000        0x0 /home/ubuntu/Desktop/RockboxRCC/bu800/firmware/libfirmware.a(semaphore.o)
 .note.GNU-stack
                0x00000000        0x0 /home/ubuntu/Desktop/RockboxRCC/bu800/firmware/libfirmware.a(thread.o)
 .note.GNU-stack
                0x00000000        0x0 /home/ubuntu/Desktop/RockboxRCC/bu800/firmware/libfirmware.a(tick.o)
 .note.GNU-stack
                0x00000000        0x0 /home/ubuntu/Desktop/RockboxRCC/bu800/firmware/libfirmware.a(timeout.o)
 .note.GNU-stack
                0x00000000        0x0 /home/ubuntu/Desktop/RockboxRCC/bu800/firmware/libfirmware.a(sysfont.o)
 .note.GNU-stack
                0x00000000        0x0 /home/ubuntu/Desktop/RockboxRCC/bu800/firmware/libfirmware.a(ffs.o)
 .note.GNU-stack
                0x00000000        0x0 /home/ubuntu/Desktop/RockboxRCC/bu800/firmware/libfirmware.a(memset16.o)
 .note.GNU-stack
                0x00000000        0x0 /home/ubuntu/Desktop/RockboxRCC/bu800/firmware/libfirmware.a(rtc.o)
 .note.GNU-stack
                0x00000000        0x0 /home/ubuntu/Desktop/RockboxRCC/bu800/firmware/libfirmware.a(arabjoin.o)
 .note.GNU-stack
                0x00000000        0x0 /home/ubuntu/Desktop/RockboxRCC/bu800/firmware/libfirmware.a(font_cache.o)
 .note.GNU-stack
                0x00000000        0x0 /home/ubuntu/Desktop/RockboxRCC/bu800/lib/rbcodec/codecs/libspeex-voice.a(bits.o)
 .note.GNU-stack
                0x00000000        0x0 /home/ubuntu/Desktop/RockboxRCC/bu800/lib/rbcodec/codecs/libspeex-voice.a(modes_wb.o)
 .note.GNU-stack
                0x00000000        0x0 /home/ubuntu/Desktop/RockboxRCC/bu800/lib/rbcodec/codecs/libspeex-voice.a(quant_lsp.o)
 .note.GNU-stack
                0x00000000        0x0 /home/ubuntu/Desktop/RockboxRCC/bu800/lib/rbcodec/codecs/libspeex-voice.a(sb_celp.o)
 .note.GNU-stack
                0x00000000        0x0 /home/ubuntu/Desktop/RockboxRCC/bu800/lib/rbcodec/codecs/libspeex-voice.a(speex.o)
 .note.GNU-stack
                0x00000000        0x0 /home/ubuntu/Desktop/RockboxRCC/bu800/lib/rbcodec/codecs/libspeex-voice.a(filters_arm4.o)
 .note.GNU-stack
                0x00000000        0x0 /home/ubuntu/Desktop/RockboxRCC/bu800/lib/rbcodec/codecs/libspeex-voice.a(cb_search.o)
 .note.GNU-stack
                0x00000000        0x0 /home/ubuntu/Desktop/RockboxRCC/bu800/lib/rbcodec/codecs/libspeex-voice.a(filters.o)
 .note.GNU-stack
                0x00000000        0x0 /home/ubuntu/Desktop/RockboxRCC/bu800/lib/rbcodec/codecs/libspeex-voice.a(hexc_10_32_table.o)
 .note.GNU-stack
                0x00000000        0x0 /home/ubuntu/Desktop/RockboxRCC/bu800/lib/rbcodec/codecs/libspeex-voice.a(hexc_table.o)
 .note.GNU-stack
                0x00000000        0x0 /home/ubuntu/Desktop/RockboxRCC/bu800/lib/rbcodec/codecs/libspeex-voice.a(high_lsp_tables.o)
 .note.GNU-stack
                0x00000000        0x0 /home/ubuntu/Desktop/RockboxRCC/bu800/lib/rbcodec/codecs/libspeex-voice.a(lsp.o)
 .note.GNU-stack
                0x00000000        0x0 /home/ubuntu/Desktop/RockboxRCC/bu800/lib/rbcodec/codecs/libspeex-voice.a(lsp_tables_nb.o)
 .note.GNU-stack
                0x00000000        0x0 /home/ubuntu/Desktop/RockboxRCC/bu800/lib/rbcodec/codecs/libspeex-voice.a(ltp.o)
 .note.GNU-stack
                0x00000000        0x0 /home/ubuntu/Desktop/RockboxRCC/bu800/lib/rbcodec/codecs/libspeex-voice.a(modes.o)
 .note.GNU-stack
                0x00000000        0x0 /home/ubuntu/Desktop/RockboxRCC/bu800/lib/rbcodec/codecs/libspeex-voice.a(nb_celp.o)
 .note.GNU-stack
                0x00000000        0x0 /home/ubuntu/Desktop/RockboxRCC/bu800/lib/rbcodec/codecs/libspeex-voice.a(speex_callbacks.o)
 .note.GNU-stack
                0x00000000        0x0 /home/ubuntu/Desktop/RockboxRCC/bu800/lib/rbcodec/codecs/libspeex-voice.a(exc_10_16_table.o)
 .note.GNU-stack
                0x00000000        0x0 /home/ubuntu/Desktop/RockboxRCC/bu800/lib/rbcodec/codecs/libspeex-voice.a(exc_10_32_table.o)
 .note.GNU-stack
                0x00000000        0x0 /home/ubuntu/Desktop/RockboxRCC/bu800/lib/rbcodec/codecs/libspeex-voice.a(exc_20_32_table.o)
 .note.GNU-stack
                0x00000000        0x0 /home/ubuntu/Desktop/RockboxRCC/bu800/lib/rbcodec/codecs/libspeex-voice.a(exc_5_256_table.o)
 .note.GNU-stack
                0x00000000        0x0 /home/ubuntu/Desktop/RockboxRCC/bu800/lib/rbcodec/codecs/libspeex-voice.a(exc_5_64_table.o)
 .note.GNU-stack
                0x00000000        0x0 /home/ubuntu/Desktop/RockboxRCC/bu800/lib/rbcodec/codecs/libspeex-voice.a(exc_8_128_table.o)
 .note.GNU-stack
                0x00000000        0x0 /home/ubuntu/Desktop/RockboxRCC/bu800/lib/rbcodec/codecs/libspeex-voice.a(gain_table.o)
 .note.GNU-stack
                0x00000000        0x0 /home/ubuntu/Desktop/RockboxRCC/bu800/lib/rbcodec/codecs/libspeex-voice.a(gain_table_lbr.o)
 .note.GNU-stack
                0x00000000        0x0 /home/ubuntu/Desktop/RockboxRCC/bu800/lib/librbcodec.a(metadata.o)
 .note.GNU-stack
                0x00000000        0x0 /home/ubuntu/Desktop/RockboxRCC/bu800/lib/librbcodec.a(id3tags.o)
 .note.GNU-stack
                0x00000000        0x0 /home/ubuntu/Desktop/RockboxRCC/bu800/lib/librbcodec.a(mp3.o)
 .note.GNU-stack
                0x00000000        0x0 /home/ubuntu/Desktop/RockboxRCC/bu800/lib/librbcodec.a(mp3data.o)
 .note.GNU-stack
                0x00000000        0x0 /home/ubuntu/Desktop/RockboxRCC/bu800/lib/librbcodec.a(channel_mode.o)
 .note.GNU-stack
                0x00000000        0x0 /home/ubuntu/Desktop/RockboxRCC/bu800/lib/librbcodec.a(compressor.o)
 .note.GNU-stack
                0x00000000        0x0 /home/ubuntu/Desktop/RockboxRCC/bu800/lib/librbcodec.a(crossfeed.o)
 .note.GNU-stack
                0x00000000        0x0 /home/ubuntu/Desktop/RockboxRCC/bu800/lib/librbcodec.a(emu10k_space80.o)
 .note.GNU-stack
                0x00000000        0x0 /home/ubuntu/Desktop/RockboxRCC/bu800/lib/librbcodec.a(dsp_core.o)
 .note.GNU-stack
                0x00000000        0x0 /home/ubuntu/Desktop/RockboxRCC/bu800/lib/librbcodec.a(surround.o)
 .note.GNU-stack
                0x00000000        0x0 /home/ubuntu/Desktop/RockboxRCC/bu800/lib/librbcodec.a(aatube.o)
 .note.GNU-stack
                0x00000000        0x0 /home/ubuntu/Desktop/RockboxRCC/bu800/lib/librbcodec.a(dsp_filter.o)
 .note.GNU-stack
                0x00000000        0x0 /home/ubuntu/Desktop/RockboxRCC/bu800/lib/librbcodec.a(dsp_misc.o)
 .note.GNU-stack
                0x00000000        0x0 /home/ubuntu/Desktop/RockboxRCC/bu800/lib/librbcodec.a(dsp_sample_input.o)
 .note.GNU-stack
                0x00000000        0x0 /home/ubuntu/Desktop/RockboxRCC/bu800/lib/librbcodec.a(dsp_sample_output.o)
 .note.GNU-stack
                0x00000000        0x0 /home/ubuntu/Desktop/RockboxRCC/bu800/lib/librbcodec.a(eq.o)
 .note.GNU-stack
                0x00000000        0x0 /home/ubuntu/Desktop/RockboxRCC/bu800/lib/librbcodec.a(resample.o)
 .note.GNU-stack
                0x00000000        0x0 /home/ubuntu/Desktop/RockboxRCC/bu800/lib/librbcodec.a(pga.o)
 .note.GNU-stack
                0x00000000        0x0 /home/ubuntu/Desktop/RockboxRCC/bu800/lib/librbcodec.a(tdspeed.o)
 .note.GNU-stack
                0x00000000        0x0 /home/ubuntu/Desktop/RockboxRCC/bu800/lib/librbcodec.a(tone_controls.o)
 .note.GNU-stack
                0x00000000        0x0 /home/ubuntu/Desktop/RockboxRCC/bu800/lib/librbcodec.a(dsp_arm.o)
 .note.GNU-stack
                0x00000000        0x0 /home/ubuntu/Desktop/RockboxRCC/bu800/lib/librbcodec.a(replaygain.o)
 .note.GNU-stack
                0x00000000        0x0 /home/ubuntu/Desktop/RockboxRCC/bu800/lib/librbcodec.a(metadata_common.o)
 .note.GNU-stack
                0x00000000        0x0 /home/ubuntu/Desktop/RockboxRCC/bu800/lib/librbcodec.a(a52.o)
 .note.GNU-stack
                0x00000000        0x0 /home/ubuntu/Desktop/RockboxRCC/bu800/lib/librbcodec.a(adx.o)
 .note.GNU-stack
                0x00000000        0x0 /home/ubuntu/Desktop/RockboxRCC/bu800/lib/librbcodec.a(aiff.o)
 .note.GNU-stack
                0x00000000        0x0 /home/ubuntu/Desktop/RockboxRCC/bu800/lib/librbcodec.a(asap.o)
 .note.GNU-stack
                0x00000000        0x0 /home/ubuntu/Desktop/RockboxRCC/bu800/lib/librbcodec.a(asf.o)
 .note.GNU-stack
                0x00000000        0x0 /home/ubuntu/Desktop/RockboxRCC/bu800/lib/librbcodec.a(au.o)
 .note.GNU-stack
                0x00000000        0x0 /home/ubuntu/Desktop/RockboxRCC/bu800/lib/librbcodec.a(ay.o)
 .note.GNU-stack
                0x00000000        0x0 /home/ubuntu/Desktop/RockboxRCC/bu800/lib/librbcodec.a(flac.o)
 .note.GNU-stack
                0x00000000        0x0 /home/ubuntu/Desktop/RockboxRCC/bu800/lib/librbcodec.a(gbs.o)
 .note.GNU-stack
                0x00000000        0x0 /home/ubuntu/Desktop/RockboxRCC/bu800/lib/librbcodec.a(hes.o)
 .note.GNU-stack
                0x00000000        0x0 /home/ubuntu/Desktop/RockboxRCC/bu800/lib/librbcodec.a(kss.o)
 .note.GNU-stack
                0x00000000        0x0 /home/ubuntu/Desktop/RockboxRCC/bu800/lib/librbcodec.a(mod.o)
 .note.GNU-stack
                0x00000000        0x0 /home/ubuntu/Desktop/RockboxRCC/bu800/lib/librbcodec.a(monkeys.o)
 .note.GNU-stack
                0x00000000        0x0 /home/ubuntu/Desktop/RockboxRCC/bu800/lib/librbcodec.a(mp4.o)
 .note.GNU-stack
                0x00000000        0x0 /home/ubuntu/Desktop/RockboxRCC/bu800/lib/librbcodec.a(mpc.o)
 .note.GNU-stack
                0x00000000        0x0 /home/ubuntu/Desktop/RockboxRCC/bu800/lib/librbcodec.a(nsf.o)
 .note.GNU-stack
                0x00000000        0x0 /home/ubuntu/Desktop/RockboxRCC/bu800/lib/librbcodec.a(ogg.o)
 .note.GNU-stack
                0x00000000        0x0 /home/ubuntu/Desktop/RockboxRCC/bu800/lib/librbcodec.a(oma.o)
 .note.GNU-stack
                0x00000000        0x0 /home/ubuntu/Desktop/RockboxRCC/bu800/lib/librbcodec.a(rm.o)
 .note.GNU-stack
                0x00000000        0x0 /home/ubuntu/Desktop/RockboxRCC/bu800/lib/librbcodec.a(sgc.o)
 .note.GNU-stack
                0x00000000        0x0 /home/ubuntu/Desktop/RockboxRCC/bu800/lib/librbcodec.a(sid.o)
 .note.GNU-stack
                0x00000000        0x0 /home/ubuntu/Desktop/RockboxRCC/bu800/lib/librbcodec.a(smaf.o)
 .note.GNU-stack
                0x00000000        0x0 /home/ubuntu/Desktop/RockboxRCC/bu800/lib/librbcodec.a(spc.o)
 .note.GNU-stack
                0x00000000        0x0 /home/ubuntu/Desktop/RockboxRCC/bu800/lib/librbcodec.a(tta.o)
 .note.GNU-stack
                0x00000000        0x0 /home/ubuntu/Desktop/RockboxRCC/bu800/lib/librbcodec.a(vgm.o)
 .note.GNU-stack
                0x00000000        0x0 /home/ubuntu/Desktop/RockboxRCC/bu800/lib/librbcodec.a(vorbis.o)
 .note.GNU-stack
                0x00000000        0x0 /home/ubuntu/Desktop/RockboxRCC/bu800/lib/librbcodec.a(vox.o)
 .note.GNU-stack
                0x00000000        0x0 /home/ubuntu/Desktop/RockboxRCC/bu800/lib/librbcodec.a(wave.o)
 .note.GNU-stack
                0x00000000        0x0 /home/ubuntu/Desktop/RockboxRCC/bu800/lib/librbcodec.a(wavpack.o)
 .note.GNU-stack
                0x00000000        0x0 /home/ubuntu/Desktop/RockboxRCC/bu800/lib/librbcodec.a(emu10k_core.o)
 .note.GNU-stack
                0x00000000        0x0 /home/ubuntu/Desktop/RockboxRCC/bu800/lib/librbcodec.a(ape.o)
 .note.GNU-stack
                0x00000000        0x0 /home/ubuntu/Desktop/RockboxRCC/bu800/lib/libunwarminder.a(backtrace.o)
 .note.GNU-stack
                0x00000000        0x0 /home/ubuntu/Desktop/RockboxRCC/bu800/lib/libunwarminder.a(unwarminder.o)
 .note.GNU-stack
                0x00000000        0x0 /home/ubuntu/Desktop/RockboxRCC/bu800/lib/libunwarminder.a(unwarm_thumb.o)
 .note.GNU-stack
                0x00000000        0x0 /home/ubuntu/Desktop/RockboxRCC/bu800/lib/libunwarminder.a(safe_read.o)
 .note.GNU-stack
                0x00000000        0x0 /home/ubuntu/Desktop/RockboxRCC/bu800/lib/libunwarminder.a(unwarm_arm.o)
 .note.GNU-stack
                0x00000000        0x0 /home/ubuntu/Desktop/RockboxRCC/bu800/lib/libunwarminder.a(unwarm.o)
 .note.GNU-stack
                0x00000000        0x0 /home/ubuntu/Desktop/RockboxRCC/bu800/lib/libunwarminder.a(unwarmmem.o)
 .note.GNU-stack
                0x00000000        0x0 /home/ubuntu/Desktop/RockboxRCC/bu800/lib/libskin_parser.a(skin_buffer.o)
 .note.GNU-stack
                0x00000000        0x0 /home/ubuntu/Desktop/RockboxRCC/bu800/lib/libskin_parser.a(skin_parser.o)
 .note.GNU-stack
                0x00000000        0x0 /home/ubuntu/Desktop/RockboxRCC/bu800/lib/libskin_parser.a(skin_scan.o)
 .note.GNU-stack
                0x00000000        0x0 /home/ubuntu/Desktop/RockboxRCC/bu800/lib/libskin_parser.a(tag_table.o)
 .note.GNU-stack
                0x00000000        0x0 /home/ubuntu/Desktop/RockboxRCC/bu800/lib/libfixedpoint.a(fixedpoint.o)
 .note.GNU-stack
                0x00000000        0x0 /home/ubuntu/Desktop/RockboxRCC/bu800/cpu-features.o
 .note.GNU-stack
                0x00000000        0x0 /home/ubuntu/Desktop/RockboxRCC/bu800/firmware/target/hosted/android/jni/power-manager.o
 .note.GNU-stack
                0x00000000        0x0 /home/ubuntu/android-ndk-r9c/toolchains/arm-linux-androideabi-4.6/prebuilt/linux-x86/bin/../lib/gcc/arm-linux-androideabi/4.6/libgcc.a(_udivsi3.o)
 .note.GNU-stack
                0x00000000        0x0 /home/ubuntu/android-ndk-r9c/toolchains/arm-linux-androideabi-4.6/prebuilt/linux-x86/bin/../lib/gcc/arm-linux-androideabi/4.6/libgcc.a(_divsi3.o)
 .note.GNU-stack
                0x00000000        0x0 /home/ubuntu/android-ndk-r9c/toolchains/arm-linux-androideabi-4.6/prebuilt/linux-x86/bin/../lib/gcc/arm-linux-androideabi/4.6/libgcc.a(_arm_addsubdf3.o)
 .note.GNU-stack
                0x00000000        0x0 /home/ubuntu/android-ndk-r9c/toolchains/arm-linux-androideabi-4.6/prebuilt/linux-x86/bin/../lib/gcc/arm-linux-androideabi/4.6/libgcc.a(_arm_muldivdf3.o)
 .note.GNU-stack
                0x00000000        0x0 /home/ubuntu/android-ndk-r9c/toolchains/arm-linux-androideabi-4.6/prebuilt/linux-x86/bin/../lib/gcc/arm-linux-androideabi/4.6/libgcc.a(_arm_truncdfsf2.o)
 .note.GNU-stack
                0x00000000        0x0 /home/ubuntu/android-ndk-r9c/toolchains/arm-linux-androideabi-4.6/prebuilt/linux-x86/bin/../lib/gcc/arm-linux-androideabi/4.6/libgcc.a(_arm_addsubsf3.o)
 .note.GNU-stack
                0x00000000        0x0 /home/ubuntu/android-ndk-r9c/toolchains/arm-linux-androideabi-4.6/prebuilt/linux-x86/bin/../lib/gcc/arm-linux-androideabi/4.6/libgcc.a(_arm_muldivsf3.o)
 .note.GNU-stack
                0x00000000        0x0 /home/ubuntu/android-ndk-r9c/toolchains/arm-linux-androideabi-4.6/prebuilt/linux-x86/bin/../lib/gcc/arm-linux-androideabi/4.6/libgcc.a(_arm_fixsfsi.o)
 .note.GNU-stack
                0x00000000        0x0 /home/ubuntu/android-ndk-r9c/toolchains/arm-linux-androideabi-4.6/prebuilt/linux-x86/bin/../lib/gcc/arm-linux-androideabi/4.6/libgcc.a(_aeabi_ldivmod.o)
 .note.GNU-stack
                0x00000000        0x0 /home/ubuntu/android-ndk-r9c/toolchains/arm-linux-androideabi-4.6/prebuilt/linux-x86/bin/../lib/gcc/arm-linux-androideabi/4.6/libgcc.a(_aeabi_uldivmod.o)
 .note.GNU-stack
                0x00000000        0x0 /home/ubuntu/android-ndk-r9c/toolchains/arm-linux-androideabi-4.6/prebuilt/linux-x86/bin/../lib/gcc/arm-linux-androideabi/4.6/libgcc.a(_dvmd_lnx.o)
 .note.GNU-stack
                0x00000000        0x0 /home/ubuntu/android-ndk-r9c/toolchains/arm-linux-androideabi-4.6/prebuilt/linux-x86/bin/../lib/gcc/arm-linux-androideabi/4.6/libgcc.a(_popcountsi2.o)
 .note.GNU-stack
                0x00000000        0x0 /home/ubuntu/android-ndk-r9c/toolchains/arm-linux-androideabi-4.6/prebuilt/linux-x86/bin/../lib/gcc/arm-linux-androideabi/4.6/libgcc.a(bpabi.o)
 .note.GNU-stack
                0x00000000        0x0 /home/ubuntu/android-ndk-r9c/toolchains/arm-linux-androideabi-4.6/prebuilt/linux-x86/bin/../lib/gcc/arm-linux-androideabi/4.6/libgcc.a(unwind-arm.o)
 .note.GNU-stack
                0x00000000        0x0 /home/ubuntu/android-ndk-r9c/toolchains/arm-linux-androideabi-4.6/prebuilt/linux-x86/bin/../lib/gcc/arm-linux-androideabi/4.6/libgcc.a(libunwind.o)
 .note.GNU-stack
                0x00000000        0x0 /home/ubuntu/android-ndk-r9c/toolchains/arm-linux-androideabi-4.6/prebuilt/linux-x86/bin/../lib/gcc/arm-linux-androideabi/4.6/libgcc.a(pr-support.o)
 .note.GNU-stack
                0x00000000        0x0 /home/ubuntu/android-ndk-r9c/toolchains/arm-linux-androideabi-4.6/prebuilt/linux-x86/bin/../lib/gcc/arm-linux-androideabi/4.6/libgcc.a(_popcount_tab.o)
 .note.GNU-stack
                0x00000000        0x0 /home/ubuntu/android-ndk-r9c/toolchains/arm-linux-androideabi-4.6/prebuilt/linux-x86/bin/../lib/gcc/arm-linux-androideabi/4.6/libgcc.a(_divdi3.o)
 .note.GNU-stack
                0x00000000        0x0 /home/ubuntu/android-ndk-r9c/toolchains/arm-linux-androideabi-4.6/prebuilt/linux-x86/bin/../lib/gcc/arm-linux-androideabi/4.6/libgcc.a(_udivdi3.o)
 .note.GNU-stack
                0x00000000        0x0 /home/ubuntu/android-ndk-r9c/platforms/android-19/arch-arm/usr/lib/crtend_so.o

Memory map

 ** file header
                0x00000000       0x34
 ** segment headers
                0x00000034       0xe0

.dynsym         0x00000114     0x6930
 ** dynsym      0x00000114     0x6930

.dynstr         0x00006a44     0x6f9c
 ** string table
                0x00006a44     0x6f9c

.hash           0x0000d9e0     0x2a70
 ** hash        0x0000d9e0     0x2a70

.rel.dyn        0x00010450     0x8468
 ** dynamic relocs
                0x00010450     0x8468

.rel.plt        0x000188b8      0x2a8
 ** dynamic relocs
                0x000188b8      0x2a8

.plt            0x00018b60      0x410
 ** PLT         0x00018b60      0x410

.text           0x00018f70    0x79ecc
 .text          0x00018f70       0x14 /home/ubuntu/android-ndk-r9c/platforms/android-19/arch-arm/usr/lib/crtbegin_so.o
                0x00018f70                atexit
 .text.exit     0x00018f84       0x10 /home/ubuntu/android-ndk-r9c/platforms/android-19/arch-arm/usr/lib/crtbegin_so.o
                0x00018f84                __on_dlclose
 .text          0x00018f94      0x740 /home/ubuntu/Desktop/RockboxRCC/bu800/apps/action.o
                0x00018f94                is_keys_locked
                0x000194c4                action_userabort
                0x000194f8                get_custom_action
                0x00019504                get_action
                0x00019528                get_action_data
                0x0001953c                get_action_statuscode
                0x00019574                action_get_touchscreen_press
                0x00019640                action_get_touchscreen_press_in_vp
                0x000196bc                action_wait_for_release
 .text          0x000196d4      0x214 /home/ubuntu/Desktop/RockboxRCC/bu800/apps/abrepeat.o
                0x000196d4                ab_repeat_init
                0x00019704                ab_before_A_marker
                0x00019734                ab_after_A_marker
                0x00019768                ab_jump_to_A_marker
                0x00019784                ab_end_of_track_report
                0x000197c0                ab_reset_markers
                0x000197e8                ab_set_A_marker
                0x00019844                ab_set_B_marker
                0x000198a0                ab_get_A_marker
                0x000198c4                ab_get_B_marker
 .text          0x000198e8     0x1814 /home/ubuntu/Desktop/RockboxRCC/bu800/apps/bookmark.o
                0x0001ab64                bookmark_load_menu
                0x0001abec                bookmark_mrb_load
                0x0001ac3c                bookmark_load
                0x0001ad00                bookmark_autoload
                0x0001ade0                bookmark_exists
                0x0001ae2c                bookmark_is_bookmarkable_state
                0x0001afc8                bookmark_create_menu
                0x0001afe0                bookmark_autobookmark
 .text          0x0001b0fc     0x183c /home/ubuntu/Desktop/RockboxRCC/bu800/apps/debug_menu.o
                0x0001c868                debug_menu
                0x0001c8bc                run_debug_screen
 .text          0x0001c938      0xe74 /home/ubuntu/Desktop/RockboxRCC/bu800/apps/filetypes.o
                0x0001cc00                tree_get_filetypes
                0x0001cc1c                read_color_theme_file
                0x0001cd78                read_viewer_theme_file
                0x0001cf64                filetype_init
                0x0001d42c                filetype_get_attr
                0x0001d47c                filetype_get_color
                0x0001d4fc                filetype_get_icon
                0x0001d564                filetype_get_plugin
                0x0001d5f8                filetype_supported
                0x0001d60c                filetype_list_viewers
                0x0001d69c                filetype_load_plugin
 .text          0x0001d7ac      0x278 /home/ubuntu/Desktop/RockboxRCC/bu800/apps/language.o
                0x0001d7ac                lang_init
                0x0001d7e0                lang_load
                0x0001d960                lang_core_load
                0x0001d9b8                lang_english_to_id
                0x0001da0c                lang_is_rtl
 .text          0x0001da24      0x1e4 /home/ubuntu/Desktop/RockboxRCC/bu800/apps/main.o
                0x0001da24                main
 .text          0x0001dc08      0xe98 /home/ubuntu/Desktop/RockboxRCC/bu800/apps/menu.o
                0x0001e1c0                do_setting_screen
                0x0001e2b4                do_setting_from_menu
                0x0001e308                do_menu
 .text          0x0001eaa0       0x34 /home/ubuntu/Desktop/RockboxRCC/bu800/apps/menus/menu_common.o
                0x0001eaa0                lowlatency_callback
 .text          0x0001ead4      0x3f0 /home/ubuntu/Desktop/RockboxRCC/bu800/apps/menus/display_menu.o
 .text          0x0001eec4      0x3c4 /home/ubuntu/Desktop/RockboxRCC/bu800/apps/menus/theme_menu.o
                0x0001f0f0                browse_folder
 .text          0x0001f288       0x68 /home/ubuntu/Desktop/RockboxRCC/bu800/apps/menus/plugin_menu.o
 .text          0x0001f2f0     0x14a4 /home/ubuntu/Desktop/RockboxRCC/bu800/apps/menus/eq_menu.o
                0x0001f684                eq_q_format
                0x0001fb4c                eq_menu_graphical
                0x00020714                eq_precut_format
 .text          0x00020794     0x21b8 /home/ubuntu/Desktop/RockboxRCC/bu800/apps/buffering.o
                0x00021c48                bufopen
                0x000220f4                bufalloc
                0x0002222c                bufclose
                0x00022258                bufseek
                0x00022280                bufadvance
                0x000222d8                bufftell
                0x00022324                bufread
                0x000223e4                bufgetdata
                0x00022488                bufgettail
                0x00022544                bufcuttail
                0x000225f0                buf_handle_offset
                0x00022608                buf_set_base_handle
                0x00022638                buf_handle_data_type
                0x00022650                buf_handle_remaining
                0x00022668                buf_is_handle
                0x0002267c                buf_pin_handle
                0x000226dc                buf_signal_handle
                0x000226fc                buf_length
                0x00022710                buf_used
                0x00022748                buf_set_watermark
                0x0002275c                buf_get_watermark
                0x0002277c                buffering_init
                0x00022808                buffering_reset
                0x000228e8                buffering_get_debugdata
 .text          0x0002294c      0x864 /home/ubuntu/Desktop/RockboxRCC/bu800/apps/voice_thread.o
                0x00022f44                mp3_play_data
                0x00022fa4                mp3_play_stop
                0x00022fe0                mp3_play_pause
                0x00022fe4                mp3_is_playing
                0x00022ff8                voice_stop
                0x00023004                voice_wait
                0x00023048                voice_thread_init
                0x00023180                voice_thread_set_priority
 .text          0x000231b0      0x1c8 /home/ubuntu/Desktop/RockboxRCC/bu800/apps/rbcodec_helpers.o
                0x00023238                tdspeed_alloc_buffers
                0x0002332c                tdspeed_free_buffers
 .text          0x00023378      0x438 /home/ubuntu/Desktop/RockboxRCC/bu800/apps/menus/main_menu.o
 .text          0x000237b0      0x24c /home/ubuntu/Desktop/RockboxRCC/bu800/apps/menus/playback_menu.o
 .text          0x000239fc      0x148 /home/ubuntu/Desktop/RockboxRCC/bu800/apps/menus/playlist_menu.o
                0x00023a38                save_playlist_screen
 .text          0x00023b44      0x580 /home/ubuntu/Desktop/RockboxRCC/bu800/apps/menus/settings_menu.o
                0x00023fc0                sleep_timer_formatter
 .text          0x000240c4      0x144 /home/ubuntu/Desktop/RockboxRCC/bu800/apps/menus/sound_menu.o
 .text          0x00024208      0x4a8 /home/ubuntu/Desktop/RockboxRCC/bu800/apps/menus/time_menu.o
                0x00024474                talk_timedate
                0x00024594                time_screen
 .text          0x000246b0     0x11d4 /home/ubuntu/Desktop/RockboxRCC/bu800/apps/misc.o
                0x000247c4                output_dyn_value
                0x000249c0                warn_on_pl_erase
                0x00024a40                fast_readline
                0x00024b08                list_stop_handler
                0x00024b54                show_logo
                0x00024bfc                setvol
                0x00024cc0                default_event_handler_ex
                0x00025098                default_event_handler
                0x000250ac                strrsplt
                0x000250cc                strip_extension
                0x00025134                system_sound_play
                0x00025178                keyclick_set_callback
                0x00025190                keyclick_click
                0x000252bc                id3_get_replaygain_mode
                0x00025314                replaygain_update
                0x00025358                read_line
                0x00025400                skip_whitespace
                0x00025428                settings_parseline
                0x00025484                format_time
                0x00025558                split_string
                0x00025624                open_utf8
                0x000256c0                hex_to_rgb
                0x00025768                parse_color
                0x000257ac                clamp_value_wrap
                0x000257c8                push_current_activity
                0x00025810                pop_current_activity
                0x00025850                get_current_activity
 .text          0x00025884     0x19a0 /home/ubuntu/Desktop/RockboxRCC/bu800/apps/onplay.o
                0x00026f64                onplay_show_playlist_menu
                0x00026fdc                onplay_show_playlist_cat_menu
                0x0002701c                get_hotkey_lang_id
                0x0002706c                onplay
 .text          0x00027224     0x4a88 /home/ubuntu/Desktop/RockboxRCC/bu800/apps/playlist.o
                0x00028c64                playlist_remove_all_tracks
                0x000290b8                playlist_skip_entry
                0x0002910c                playlist_init
                0x00029208                playlist_shutdown
                0x0002927c                playlist_create
                0x00029344                playlist_resume
                0x00029eb0                playlist_add
                0x00029f60                playlist_shuffle
                0x0002a098                playlist_start
                0x0002a0dc                playlist_check
                0x0002a180                playlist_peek
                0x0002a28c                playlist_next
                0x0002a4e4                playlist_next_dir
                0x0002a51c                playlist_get_resume_info
                0x0002a538                playlist_update_resume_info
                0x0002a620                playlist_get_display_index
                0x0002a644                playlist_set_last_shuffled_start
                0x0002a65c                playlist_create_ex
                0x0002a798                playlist_set_current
                0x0002a940                playlist_get_current
                0x0002a950                playlist_close
                0x0002a9b0                playlist_sync
                0x0002a9f0                playlist_insert_track
                0x0002aa80                playlist_insert_playlist
                0x0002ad2c                playlist_delete
                0x0002adb0                playlist_move
                0x0002af3c                playlist_randomise
                0x0002afa4                playlist_sort
                0x0002b004                playlist_modified
                0x0002b04c                playlist_get_first_index
                0x0002b064                playlist_get_seed
                0x0002b07c                playlist_amount_ex
                0x0002b094                playlist_amount
                0x0002b0a4                playlist_name
                0x0002b100                playlist_get_name
                0x0002b138                playlist_get_track_info
                0x0002b21c                playlist_get_filename_crc32
                0x0002b258                playlist_resume_track
                0x0002b320                playlist_save
                0x0002b994                playlist_directory_tracksearch
                0x0002bbac                playlist_insert_directory
 .text          0x0002bcac      0x900 /home/ubuntu/Desktop/RockboxRCC/bu800/apps/playlist_catalog.o
                0x0002c0c4                catalog_set_directory
                0x0002c11c                catalog_get_directory
                0x0002c150                catalog_view_playlists
                0x0002c1b8                catalog_add_to_a_playlist
 .text          0x0002c5ac     0x13f8 /home/ubuntu/Desktop/RockboxRCC/bu800/apps/playlist_viewer.o
                0x0002ce80                playlist_viewer_ex
                0x0002d758                playlist_viewer
                0x0002d768                search_playlist
 .text          0x0002d9a4      0x4c0 /home/ubuntu/Desktop/RockboxRCC/bu800/apps/plugin.o
                0x0002d9d0                plugin_get_buffer
                0x0002da34                plugin_tsr
                0x0002da48                plugin_get_current_filename
                0x0002da60                plugin_get_audio_buffer
                0x0002db44                plugin_load
 .text          0x0002de64      0xf6c /home/ubuntu/Desktop/RockboxRCC/bu800/apps/root_menu.o
                0x0002e5b8                root_menu_get_options
                0x0002e5d0                root_menu_write_to_cfg
                0x0002e6c8                root_menu_set_default
                0x0002e750                root_menu_load_from_cfg
                0x0002e8e8                root_menu_is_changed
                0x0002e8f0                previous_music_is_wps
                0x0002e908                root_menu
 .text          0x0002edd0     0x14b0 /home/ubuntu/Desktop/RockboxRCC/bu800/apps/screens.o
                0x0002f610                set_time_screen
                0x0002fdbc                browse_id3
                0x0002fee8                view_runtime
                0x00030090                calibrate
                0x0003023c                reset_mapping
 .text          0x00030280     0x1a30 /home/ubuntu/Desktop/RockboxRCC/bu800/apps/settings.o
                0x000304f8                cfg_string_to_int
                0x000305a8                cfg_int_to_string
                0x00030730                cfg_to_string
                0x00030c50                status_save
                0x00030c6c                settings_save
                0x00030c8c                settings_save_config
                0x00030d7c                settings_apply_pm_range
                0x00030dd0                sound_settings_apply
                0x00030e44                settings_apply
                0x00031194                settings_load_config
                0x0003151c                settings_load
                0x00031768                reset_setting
                0x00031820                settings_reset
                0x000318d8                find_setting
                0x00031978                find_setting_by_cfgname
                0x00031a10                set_int_ex
                0x00031a88                set_int
                0x00031acc                set_option
                0x00031bbc                set_bool_options
                0x00031c00                set_bool
                0x00031c30                set_file
 .text          0x00031cb0      0x874 /home/ubuntu/Desktop/RockboxRCC/bu800/apps/settings_list.o
                0x00032508                get_settings_list
 .text          0x00032524      0xe8c /home/ubuntu/Desktop/RockboxRCC/bu800/apps/shortcuts.o
                0x00032c18                shortcuts_add
                0x00032cd0                shortcuts_init
                0x000330bc                do_shortcut_menu
 .text          0x000333b0       0x58 /home/ubuntu/Desktop/RockboxRCC/bu800/apps/status.o
                0x000333b0                status_set_ffmode
                0x000333c4                status_get_ffmode
                0x000333d4                current_playmode
 .text          0x00033408      0xe48 /home/ubuntu/Desktop/RockboxRCC/bu800/apps/cuesheet.o
                0x00033618                look_for_cuesheet_file
                0x00033664                parse_cuesheet
                0x00033d98                cue_find_current_track
                0x00033e04                browse_cuesheet
                0x00034018                display_cuesheet_content
                0x000340a0                curr_cuesheet_skip
                0x00034128                cue_draw_markers
                0x000341d4                cuesheet_subtrack_changed
 .text          0x00034250     0x2248 /home/ubuntu/Desktop/RockboxRCC/bu800/apps/talk.o
                0x000350c8                talk_force_shutup
                0x0003510c                talk_shutup
                0x00035284                talk_init
                0x00035524                talk_buffer_set_policy
                0x0003556c                talk_force_enqueue_next
                0x00035584                talk_spell
                0x000359ac                talk_id
                0x000356cc                talk_fractional
                0x00035ad0                talk_number
                0x00035764                talk_value_decimal
                0x00035998                talk_value
                0x00035c70                talk_idarray
                0x00035cb0                talk_file
                0x00035f90                talk_dir_or_spell
                0x0003601c                talk_file_or_spell
                0x000360a8                talk_disable
                0x000360e8                talk_setting
                0x0003612c                talk_date
                0x00036164                talk_time
                0x0003625c                talk_get_debug_data
 .text          0x00036498     0x1dd8 /home/ubuntu/Desktop/RockboxRCC/bu800/apps/tree.o
                0x000365dc                tree_get_entries
                0x00036600                tree_get_entry_at
                0x00036f18                check_rockboxdir
                0x00036f88                tree_gui_init
                0x00037048                tree_get_context
                0x00037058                resume_directory
                0x000370f4                getcwd
                0x00037148                reload_directory
                0x00037160                get_current_file
                0x00037ad8                set_dirfilter
                0x00037af0                set_current_file
                0x00037c38                create_playlist
                0x00037d04                browse_context_init
                0x00037d3c                rockbox_browse
                0x00037f4c                tree_mem_init
                0x00037ff4                bookmark_play
                0x00038258                tree_flush
                0x00038264                tree_restore
 .text          0x00038270     0x3114 /home/ubuntu/Desktop/RockboxRCC/bu800/apps/tagtree.o
                0x0003a834                tagtree_export
                0x0003a87c                tagtree_import
                0x0003a8ac                tagtree_init
                0x0003a9c0                tagtree_load
                0x0003aa84                tagtree_exit
                0x0003aaf0                tagtree_enter
                0x0003b044                tagtree_get_filename
                0x0003b0bc                tagtree_insert_selection_playlist
                0x0003b298                tagtree_get_entry_name
                0x0003b2cc                tagtree_get_title
                0x0003b328                tagtree_get_attr
                0x0003b370                tagtree_get_icon
 .text          0x0003b384     0x1034 /home/ubuntu/Desktop/RockboxRCC/bu800/apps/filetree.o
                0x0003b554                ft_build_playlist
                0x0003b5e8                ft_play_playlist
                0x0003b6d0                ft_load
                0x0003bc84                ft_enter
                0x0003c2ac                ft_exit
 .text          0x0003c3b8      0x55c /home/ubuntu/Desktop/RockboxRCC/bu800/apps/scrobbler.o
                0x0003c774                scrobbler_init
                0x0003c820                scrobbler_shutdown
                0x0003c900                scrobbler_is_enabled
 .text          0x0003c914      0x174 /home/ubuntu/Desktop/RockboxRCC/bu800/apps/screen_access.o
                0x0003ca1c                screen_helper_setfont
                0x0003ca40                screen_clear_area
 .text          0x0003ca88      0x6d0 /home/ubuntu/Desktop/RockboxRCC/bu800/apps/gui/icon.o
                0x0003cc4c                screen_put_iconxy
                0x0003ce24                screen_put_icon_with_offset
                0x0003cef8                screen_put_icon
                0x0003cf1c                screen_put_cursorxy
                0x0003cf34                icons_init
                0x0003d060                get_icon_width
                0x0003d0b0                get_icon_height
                0x0003d110                get_icon_format
 .text          0x0003d158     0x12d8 /home/ubuntu/Desktop/RockboxRCC/bu800/apps/gui/list.o
                0x0003d1ac                gui_synclist_keyclick_callback
                0x0003d2ec                list_init
                0x0003d330                list_display_title
                0x0003d388                list_get_nb_lines
                0x0003d3d4                list_init_item_height
                0x0003d494                gui_synclist_hide_selection_marker
                0x0003d4a0                gui_list_get_item_offset
                0x0003d50c                gui_synclist_speak_item
                0x0003d550                gui_synclist_select_item
                0x0003d740                gui_synclist_add_item
                0x0003d75c                gui_synclist_del_item
                0x0003d794                gui_list_screen_scroll_step
                0x0003d7a8                gui_list_screen_scroll_out_of_view
                0x0003d7bc                gui_synclist_set_title
                0x0003d7ec                gui_synclist_set_nb_items
                0x0003d7fc                gui_synclist_get_nb_items
                0x0003d804                gui_synclist_get_sel_pos
                0x0003d80c                gui_synclist_set_icon_callback
                0x0003d814                gui_synclist_set_voice_callback
                0x0003d81c                gui_synclist_set_viewport_defaults
                0x0003d880                gui_synclist_draw
                0x0003d908                gui_synclist_init
                0x0003d9c4                gui_synclist_set_color_callback
                0x0003d9cc                gui_synclist_limit_scroll
                0x0003d9d4                gui_synclist_do_button
                0x0003df14                list_do_action_timeout
                0x0003dfd4                list_do_action
                0x0003e028                simplelist_set_line_count
                0x0003e09c                simplelist_get_line_count
                0x0003e0b0                simplelist_addline
                0x0003e128                simplelist_show_list
                0x0003e3d4                simplelist_info_init
 .text          0x0003e430      0x8a0 /home/ubuntu/Desktop/RockboxRCC/bu800/apps/gui/line.o
                0x0003ebd4                vput_line
                0x0003eca8                put_line
 .text          0x0003ecd0     0x1518 /home/ubuntu/Desktop/RockboxRCC/bu800/apps/gui/bitmap/list.o
                0x0003f188                gui_synclist_scroll_stop
                0x0003f1d0                list_draw
                0x0003fbbc                _gui_synclist_stop_kinetic_scrolling
                0x0003fc00                gui_synclist_do_touchscreen
 .text          0x000401e8      0xbe8 /home/ubuntu/Desktop/RockboxRCC/bu800/apps/gui/bitmap/list-skinned.o
                0x000402b8                skinlist_set_cfg
                0x0004032c                skinlist_get_item_number
                0x00040340                skinlist_get_item_row
                0x00040354                skinlist_get_item_column
                0x00040368                skinlist_get_item_text
                0x000403e0                skinlist_get_item_icon
                0x00040438                skinlist_is_selected_item
                0x0004044c                skinlist_get_line_count
                0x000404c0                skinlist_needs_scrollbar
                0x000404d8                skinlist_get_scrollbar
                0x00040538                skinlist_get_item
                0x000405c0                skinlist_draw
 .text          0x00040dd0      0xf80 /home/ubuntu/Desktop/RockboxRCC/bu800/apps/gui/option_select.o
                0x00041154                option_value_as_int
                0x00041188                option_get_valuestring
                0x00041444                option_talk_value
                0x000415f8                option_select_next_val
                0x00041894                option_screen
                0x00041c44                get_setting_info_for_bar
                0x00041cd8                update_setting_value_from_touch
 .text          0x00041d50     0x156c /home/ubuntu/Desktop/RockboxRCC/bu800/apps/gui/pitchscreen.o
                0x000420c8                gui_syncpitchscreen_run
 .text          0x000432bc      0xc68 /home/ubuntu/Desktop/RockboxRCC/bu800/apps/gui/quickscreen.o
                0x00043c60                is_setting_quickscreenable
                0x00043d10                quick_screen_quick
                0x00043e94                set_as_qs_item
 .text          0x00043f24      0xc2c /home/ubuntu/Desktop/RockboxRCC/bu800/apps/gui/folder_select.o
                0x0004496c                load_root
                0x000449a8                select_paths
                0x000449d0                folder_select
 .text          0x00044b50     0x1060 /home/ubuntu/Desktop/RockboxRCC/bu800/apps/gui/wps.o
                0x00045004                wps_default_skin
                0x00045014                pause_action
                0x00045078                unpause_action
                0x00045094                ffwd_rew
                0x00045314                wps_do_playpause
                0x00045360                gui_wps_show
 .text          0x00045bb0      0x530 /home/ubuntu/Desktop/RockboxRCC/bu800/apps/gui/scrollbar.o
                0x00045c70                gui_scrollbar_draw
                0x00045ed0                gui_bitmap_scrollbar_draw
                0x00046044                show_busy_slider
 .text          0x000460e0      0x3a0 /home/ubuntu/Desktop/RockboxRCC/bu800/apps/gui/splash.o
                0x00046388                splashf
                0x000463f4                splash
 .text          0x00046480      0x854 /home/ubuntu/Desktop/RockboxRCC/bu800/apps/gui/statusbar.o
                0x000464c4                gui_statusbar_draw
                0x00046bd0                gui_syncstatusbar_init
                0x00046c24                gui_syncstatusbar_draw
 .text          0x00046cd4      0x804 /home/ubuntu/Desktop/RockboxRCC/bu800/apps/gui/statusbar-skinned.o
                0x00046cd4                sb_set_title_text
                0x00046cfc                sb_skin_has_title
                0x00046d18                sb_get_title
                0x00046d50                sb_get_icon
                0x00046d8c                sb_preproccess
                0x00046dbc                sb_set_info_vp
                0x00046dd4                sb_postproccess
                0x00046edc                sb_skin_get_info_vp
                0x00047030                sb_get_backdrop
                0x00047058                sb_skin_update
                0x00047150                do_sbs_update_callback
                0x0004718c                sb_skin_set_update_delay
                0x000471a0                sb_create_from_settings
                0x00047410                sb_skin_init
                0x00047428                sb_bypass_touchregions
                0x0004743c                sb_touch_to_button
 .text          0x000474d8      0x3b0 /home/ubuntu/Desktop/RockboxRCC/bu800/apps/hosted/android/yesno.o
                0x000474d8                Java_org_rockbox_RockboxYesno_put_1result
                0x000474fc                build_message
                0x00047604                gui_syncyesno_run
                0x00047834                yesno_pop
 .text          0x00047888      0x4f0 /home/ubuntu/Desktop/RockboxRCC/bu800/apps/hosted/android/notification.o
                0x00047c3c                notification_init
 .text          0x00047d78      0x71c /home/ubuntu/Desktop/RockboxRCC/bu800/apps/gui/viewport.o
                0x00047dc8                viewport_get_nb_lines
                0x00047dec                viewport_point_within_vp
                0x00047e40                viewport_set_fullscreen
                0x00047eec                viewport_set_defaults
                0x00048324                viewportmanager_theme_undo
                0x00048374                viewportmanager_theme_enable
                0x000483f8                viewportmanager_theme_changed
                0x00048438                viewportmanager_init
                0x00048464                get_viewport_default_colour
 .text          0x00048494      0x8a4 /home/ubuntu/Desktop/RockboxRCC/bu800/apps/gui/skin_engine/skin_backdrops.o
                0x00048494                skin_backdrop_get_debug
                0x000484dc                skin_backdrop_init
                0x0004854c                skin_backdrop_assign
                0x000486f8                skin_backdrops_preload
                0x000488e8                skin_backdrop_get_buffer
                0x00048914                skin_backdrop_show
                0x00048ad8                skin_backdrop_unload
                0x00048b64                skin_backdrop_load_setting
 .text          0x00048d38     0x1240 /home/ubuntu/Desktop/RockboxRCC/bu800/apps/gui/skin_engine/skin_display.o
                0x00048e00                skin_update
                0x00048e64                ab_draw_markers
                0x00048f68                draw_progressbar
                0x000495c8                clear_image_pos
                0x00049618                wps_draw_image
                0x000496c8                wps_display_images
                0x000498ec                evaluate_conditional
                0x000499e8                write_line
                0x00049dd4                draw_peakmeters
                0x00049e5c                skin_has_sbs
                0x00049e88                skin_wait_for_action
 .text          0x00049f78      0x5f4 /home/ubuntu/Desktop/RockboxRCC/bu800/apps/gui/skin_engine/skin_engine.o
                0x0004a114                skin_get_num_skins
                0x0004a11c                skin_get_stats
                0x0004a13c                gui_sync_skin_init
                0x0004a1bc                skin_unload_all
                0x0004a1c8                skin_load
                0x0004a358                skin_get_gwps
                0x0004a408                settings_apply_skins
                0x0004a514                skin_get_global_state
                0x0004a524                skin_do_full_update
                0x0004a54c                skin_request_full_update
 .text          0x0004a56c     0x57f4 /home/ubuntu/Desktop/RockboxRCC/bu800/apps/gui/skin_engine/skin_parser.o
                0x0004d6c8                skin_find_item
                0x0004f174                get_image_filename
                0x0004f310                skin_data_free_buflib_allocs
                0x0004f4f4                skin_data_load
 .text          0x0004fd60     0x1dc4 /home/ubuntu/Desktop/RockboxRCC/bu800/apps/gui/skin_engine/skin_render.o
                0x00051338                skin_render_alternator
                0x00051560                skin_render_viewport
                0x00051868                skin_render
 .text          0x00051b24     0x289c /home/ubuntu/Desktop/RockboxRCC/bu800/apps/gui/skin_engine/skin_tokens.o
                0x00051b78                get_dir
                0x00051ce4                get_cuesheetid3_token
                0x00051e60                get_id3_token
                0x000524e0                get_token_value
 .text          0x000543c0      0x998 /home/ubuntu/Desktop/RockboxRCC/bu800/apps/gui/skin_engine/skin_touchsupport.o
                0x000543c0                skin_disarm_touchregions
                0x00054440                skin_get_touchaction
 .text          0x00054d58       0x64 /home/ubuntu/Desktop/RockboxRCC/bu800/apps/gui/backdrop.o
                0x00054d58                backdrop_load
                0x00054db0                backdrop_show
 .text          0x00054dbc      0xebc /home/ubuntu/Desktop/RockboxRCC/bu800/apps/recorder/bmp.o
                0x00054dbc                output_row_8_native
                0x000552d8                read_bmp_fd
                0x00055c10                read_bmp_file
 .text          0x00055c78        0x0 /home/ubuntu/Desktop/RockboxRCC/bu800/apps/recorder/icons.o
 .text          0x00055c78      0x318 /home/ubuntu/Desktop/RockboxRCC/bu800/apps/hosted/android/keyboard.o
                0x00055c78                Java_org_rockbox_RockboxKeyboardInput_put_1result
                0x00055cd4                kbd_input
                0x00055f88                load_kbd
 .text          0x00055f90      0xf04 /home/ubuntu/Desktop/RockboxRCC/bu800/apps/recorder/peakmeter.o
                0x00056138                peak_meter_enable
                0x0005614c                peak_meter_db2sample
                0x00056194                peak_meter_get_min
                0x000561fc                peak_meter_get_max
                0x00056264                peak_meter_get_use_dbfs
                0x00056278                peak_meter_set_use_dbfs
                0x000562a0                peak_meter_init_range
                0x00056470                peak_meter_init_times
                0x0005648c                peak_meter_playback
                0x000564a4                peak_meter_peek
                0x000565c0                peak_meter_set_clip_hold
                0x000565ec                peak_meter_scale_value
                0x000566ac                peak_meter_current_vals
                0x00056718                peak_meter_screen
                0x00056d0c                peak_meter_draw_get_btn
 .text          0x00056e94      0xcdc /home/ubuntu/Desktop/RockboxRCC/bu800/apps/recorder/resize.o
                0x00057668                recalc_dimension
                0x00057704                resize_on_load
 .text          0x00057b70     0x2938 /home/ubuntu/Desktop/RockboxRCC/bu800/apps/recorder/jpeg_load.o
                0x000590d4                clip_jpeg_fd
                0x0005a3c0                clip_jpeg_file
                0x0005a440                read_jpeg_file
                0x0005a474                read_jpeg_fd
 .text          0x0005a4b0      0x500 /home/ubuntu/Desktop/RockboxRCC/bu800/apps/recorder/jpeg_idct_arm.o
                0x0005a4b0                jpeg_idct1h
                0x0005a4e0                jpeg_idct2v
                0x0005a52c                jpeg_idct2h
                0x0005a57c                jpeg_idct4v
                0x0005a5f8                jpeg_idct4h
                0x0005a694                jpeg_idct8v
                0x0005a808                jpeg_idct8h
 .text          0x0005a9b0      0x7c4 /home/ubuntu/Desktop/RockboxRCC/bu800/apps/recorder/albumart.o
                0x0005ab0c                search_albumart_files
                0x0005aecc                find_albumart
                0x0005af5c                draw_album_art
 .text          0x0005b174      0xabc /home/ubuntu/Desktop/RockboxRCC/bu800/apps/gui/color_picker.o
                0x0005b730                set_color
 .text          0x0005bc30      0x1b0 /home/ubuntu/Desktop/RockboxRCC/bu800/apps/audio_thread.o
                0x0005bcb8                audio_queue_post
                0x0005bcdc                audio_queue_send
                0x0005bd00                audio_status
                0x0005bd0c                audio_error_clear
                0x0005bd10                audio_init
 .text          0x0005bde0     0x14c8 /home/ubuntu/Desktop/RockboxRCC/bu800/apps/pcmbuf.o
                0x0005c690                pcmbuf_write_complete
                0x0005c874                pcmbuf_monitor_track_change
                0x0005c8b4                pcmbuf_play_start
                0x0005c914                pcmbuf_play_stop
                0x0005c948                pcmbuf_pause
                0x0005c980                pcmbuf_is_crossfade_active
                0x0005c99c                pcmbuf_start_track_change
                0x0005cb84                pcmbuf_request_crossfade_enable
                0x0005cb98                pcmbuf_is_same_size
                0x0005cbf0                pcmbuf_free
                0x0005cc18                pcmbuf_request_buffer
                0x0005cfe8                pcmbuf_get_bufsize
                0x0005cffc                pcmbuf_used_descs
                0x0005d00c                pcmbuf_descs
                0x0005d020                pcmbuf_fade
                0x0005d0e0                pcmbuf_fading
                0x0005d0fc                pcmbuf_soft_mode
                0x0005d178                pcmbuf_init
                0x0005d204                pcmbuf_get_position_key
                0x0005d214                pcmbuf_sync_position_update
                0x0005d22c                pcmbuf_is_lowdata
                0x0005d264                pcmbuf_set_low_latency
                0x0005d278                pcmbuf_update_frequency
                0x0005d294                pcmbuf_get_frequency
 .text          0x0005d2a8      0x9b0 /home/ubuntu/Desktop/RockboxRCC/bu800/apps/codec_thread.o
                0x0005d804                get_codec_filename
                0x0005d9c4                codec_thread_do_callback
                0x0005d9f8                codec_thread_init
                0x0005db5c                codec_thread_get_priority
                0x0005db78                codec_thread_set_priority
                0x0005db98                codec_load
                0x0005dbc4                codec_go
                0x0005dbd8                codec_seek
                0x0005dbec                codec_pause
                0x0005dc08                codec_stop
                0x0005dc2c                codec_unload
                0x0005dc44                codec_loaded
 .text          0x0005dc58     0x34cc /home/ubuntu/Desktop/RockboxRCC/bu800/apps/playback.o
                0x0005f510                audio_track_count
                0x0005f500                playback_voice_event
                0x0005f9a4                audio_buffer_size
                0x0005f9dc                audio_buffer_available
                0x0005fa24                audio_codec_update_elapsed
                0x0005fa98                audio_codec_update_offset
                0x0005fab0                audio_codec_complete
                0x0005fad0                audio_codec_seek_complete
                0x0005fae4                audio_pcmbuf_position_callback
                0x0005fb14                audio_pcmbuf_sync_position
                0x0005fd90                audio_playback_handler
                0x00060800                audio_pcmbuf_track_change
                0x00060838                audio_pcmbuf_may_play
                0x00060870                audio_peek_track
                0x000608e8                audio_current_track
                0x00060ba4                audio_next_track
                0x00060c10                audio_play
                0x00060c40                audio_stop
                0x00060c54                audio_pause
                0x00060c68                audio_hard_stop
                0x00060cac                audio_resume
                0x00060cc0                audio_skip
                0x00060d8c                audio_next
                0x00060d9c                audio_prev
                0x00060dac                audio_next_dir
                0x00060dc0                audio_prev_dir
                0x00060dd4                audio_pre_ff_rewind
                0x00060de8                audio_ff_rewind
                0x00060dfc                audio_flush_and_reload_tracks
                0x00060e10                playback_current_aa_hid
                0x00060e84                playback_claim_aa_slot
                0x00060f90                playback_release_aa_slot
                0x00060fc0                audio_get_file_pos
                0x00060fd4                audio_get_filebuflen
                0x00060fe0                audio_filebufused
                0x00060fec                audio_set_cuesheet
                0x00061044                audio_set_crossfade
                0x00061068                playback_status
                0x0006107c                playback_init
 .text          0x00061124      0x2b0 /home/ubuntu/Desktop/RockboxRCC/bu800/apps/codecs.o
                0x000611fc                codec_get_full_path
                0x00061220                codec_get_buffer_callback
                0x00061288                codec_load_buf
                0x000612ec                codec_load_file
                0x00061344                codec_run_proc
                0x00061380                codec_close
 .text          0x000613d4      0x154 /home/ubuntu/Desktop/RockboxRCC/bu800/apps/beep.o
                0x00061450                beep_play
 .text          0x00061528     0x5b20 /home/ubuntu/Desktop/RockboxRCC/bu800/apps/tagcache.o
                0x0006584c                tagcache_tag_to_str
                0x00065a10                tagcache_get_numeric
                0x00065a94                tagcache_check_clauses
                0x00065aec                tagcache_search
                0x00065c70                tagcache_find_index
                0x00065ce0                tagcache_search_set_uniqbuf
                0x00065cf8                tagcache_search_add_filter
                0x00065d44                tagcache_search_add_clause
                0x00065e40                tagcache_get_next
                0x000662b4                tagcache_retrieve
                0x000663b4                tagcache_search_finish
                0x00066450                tagcache_increase_serial
                0x000664e0                tagcache_update_numeric
                0x00066504                tagcache_import_changelog
                0x0006665c                tagcache_create_changelog
                0x000668a4                tagcache_screensync_event
                0x000668bc                tagcache_screensync_enable
                0x000668d0                tagcache_build
                0x00066db0                tagcache_shutdown
                0x00066dc0                tagcache_get_stat
                0x00066dec                tagcache_start_scan
                0x00066e10                tagcache_update
                0x00066e50                tagcache_rebuild
                0x00066e78                tagcache_stop_scan
                0x00066e9c                tagcache_init
                0x00066f70                tagcache_is_initialized
                0x00066f84                tagcache_is_fully_initialized
                0x00066f98                tagcache_is_usable
                0x00066fcc                tagcache_get_commit_step
                0x00066fe0                tagcache_prepare_shutdown
                0x00067040                tagcache_get_max_commit_step
 .text          0x00067048      0x224 /home/ubuntu/Desktop/RockboxRCC/bu800/apps/keymaps/keymap-touchscreen.o
                0x00067048                get_context_mapping
 .text          0x0006726c      0x1c0 /home/ubuntu/Desktop/RockboxRCC/bu800/apps/keymaps/keymap-android.o
                0x0006726c                target_get_context_mapping
 .text          0x0006742c        0x0 /home/ubuntu/Desktop/RockboxRCC/bu800/apps/bitmaps/mono/default_icons.o
 .text          0x0006742c        0x0 /home/ubuntu/Desktop/RockboxRCC/bu800/apps/bitmaps/native/rockboxlogo.640x198x16.o
 .text          0x0006742c        0x0 /home/ubuntu/Desktop/RockboxRCC/bu800/apps/bitmaps/native/usblogo.176x48x16.o
 .text          0x0006742c        0x0 /home/ubuntu/Desktop/RockboxRCC/bu800/lang/lang_core.o
 .text          0x0006742c        0xc /home/ubuntu/Desktop/RockboxRCC/bu800/firmware/libfirmware.a(ata_idle_notify.o)
                0x0006742c                register_storage_idle_func
 .text          0x00067438      0x2d0 /home/ubuntu/Desktop/RockboxRCC/bu800/firmware/libfirmware.a(events.o)
                0x00067570                add_event
                0x00067594                add_event_ex
                0x000675b8                do_remove_event
                0x00067644                remove_event
                0x0006765c                remove_event_ex
                0x00067678                send_event
 .text          0x00067708       0x14 /home/ubuntu/Desktop/RockboxRCC/bu800/firmware/libfirmware.a(backlight.o)
                0x00067708                backlight_on
                0x0006770c                backlight_off
                0x00067710                backlight_set_timeout
                0x00067714                is_backlight_on
 .text          0x0006771c      0xe44 /home/ubuntu/Desktop/RockboxRCC/bu800/firmware/libfirmware.a(buflib.o)
                0x00067d04                buflib_init
                0x00067d48                buflib_context_relocate
                0x00067dd8                buflib_buffer_out
                0x00067e3c                buflib_buffer_in
                0x00067e50                buflib_alloc_ex
                0x000680b0                buflib_alloc
                0x000680c4                buflib_free
                0x000681a0                buflib_allocatable
                0x00068248                buflib_available
                0x0006829c                buflib_alloc_maximum
                0x0006832c                buflib_shrink
                0x00068474                buflib_get_name
                0x000684a0                buflib_get_num_blocks
                0x000684dc                buflib_print_block_at
 .text          0x00068560      0x200 /home/ubuntu/Desktop/RockboxRCC/bu800/firmware/libfirmware.a(core_alloc.o)
                0x00068560                core_alloc
                0x00068580                core_allocator_init
                0x000685e8                core_alloc_ex
                0x0006860c                core_available
                0x00068624                core_allocatable
                0x0006863c                core_free
                0x00068658                core_test_free
                0x00068698                core_alloc_maximum
                0x000686c4                core_shrink
                0x000686f0                core_get_name
                0x0006871c                core_get_num_blocks
                0x00068734                core_print_block_at
 .text          0x00068760      0x400 /home/ubuntu/Desktop/RockboxRCC/bu800/firmware/libfirmware.a(general.o)
                0x00068760                round_value_to_list32
                0x000687fc                make_list_from_caps32
                0x00068860                create_numbered_filename
                0x000689cc                create_datetime_filename
                0x00068b00                find_array_ptr
                0x00068b2c                remove_array_ptr
 .text          0x00068b60      0x5e8 /home/ubuntu/Desktop/RockboxRCC/bu800/firmware/libfirmware.a(powermgmt.o)
                0x00068c34                _battery_voltage
                0x00068c3c                _battery_time
                0x00068c44                battery_read_info
                0x00068d38                get_battery_capacity
                0x00068d40                battery_time
                0x00068d48                battery_level
                0x00068d5c                battery_level_safe
                0x00068d64                query_force_shutdown
                0x00068d6c                battery_voltage
                0x00068d74                powermgmt_init
                0x00068dc4                shutdown_hw
                0x00068df4                set_poweroff_timeout
                0x00068e08                reset_poweroff_timer
                0x00068e74                sys_poweroff
                0x00068eb4                cancel_shutdown
                0x00068ecc                send_battery_level_event
                0x00068f48                set_sleeptimer_duration
                0x00068f5c                get_sleep_timer
                0x00068fd4                set_keypress_restarts_sleep_timer
                0x00068fe8                handle_auto_poweroff
 .text          0x00069148      0x428 /home/ubuntu/Desktop/RockboxRCC/bu800/firmware/libfirmware.a(cpuinfo-linux.o)
                0x00069210                cpuusage_linux
                0x000693c4                cpucount_linux
                0x000693d0                frequency_linux
                0x00069470                cpustatetimes_linux
 .text          0x00069570       0x20 /home/ubuntu/Desktop/RockboxRCC/bu800/firmware/libfirmware.a(usb.o)
                0x00069570                usb_inserted
                0x00069578                usb_acknowledge
                0x0006957c                usb_init
                0x00069580                usb_start_monitoring
                0x00069584                usb_detect
                0x0006958c                usb_wait_for_disconnect
 .text          0x00069590      0x120 /home/ubuntu/Desktop/RockboxRCC/bu800/firmware/libfirmware.a(panic.o)
                0x00069590                panicf
                0x00069598                panicf_f
 .text          0x000696b0        0x0 /home/ubuntu/Desktop/RockboxRCC/bu800/firmware/libfirmware.a(version.o)
 .text          0x000696b0       0x50 /home/ubuntu/Desktop/RockboxRCC/bu800/firmware/libfirmware.a(crc32.o)
                0x000696b0                crc_32
 .text          0x00069700       0x4c /home/ubuntu/Desktop/RockboxRCC/bu800/firmware/libfirmware.a(filefuncs.o)
                0x00069700                file_exists
                0x00069728                dir_exists
 .text          0x0006974c      0x7cc /home/ubuntu/Desktop/RockboxRCC/bu800/firmware/libfirmware.a(format.o)
                0x00069790                format
                0x00069ec0                fdprintf
                0x00069f0c                vuprintf
 .text          0x00069f18      0x53c /home/ubuntu/Desktop/RockboxRCC/bu800/firmware/libfirmware.a(rbpaths.o)
                0x0006a090                paths_init
                0x0006a0c8                app_open
                0x0006a120                app_creat
                0x0006a138                app_remove
                0x0006a15c                app_rename
                0x0006a1ac                dir_get_info
                0x0006a2cc                app_opendir
                0x0006a39c                app_closedir
                0x0006a3c0                app_readdir
                0x0006a3d0                app_mkdir
                0x0006a3fc                app_rmdir
                0x0006a420                app_readlink
 .text          0x0006a454       0xbc /home/ubuntu/Desktop/RockboxRCC/bu800/firmware/libfirmware.a(strcasecmp.o)
                0x0006a454                strcasecmp
                0x0006a4c4                strncasecmp
 .text          0x0006a510      0x1d4 /home/ubuntu/Desktop/RockboxRCC/bu800/firmware/libfirmware.a(strcasestr.o)
                0x0006a510                strcasestr
 .text          0x0006a6e4      0x1f8 /home/ubuntu/Desktop/RockboxRCC/bu800/firmware/libfirmware.a(strnatcmp.o)
                0x0006a8bc                strnatcmp
                0x0006a8cc                strnatcasecmp
 .text          0x0006a8dc       0xb0 /home/ubuntu/Desktop/RockboxRCC/bu800/firmware/libfirmware.a(strlcat.o)
                0x0006a8dc                strlcat
 .text          0x0006a98c       0x74 /home/ubuntu/Desktop/RockboxRCC/bu800/firmware/libfirmware.a(strlcpy.o)
                0x0006a98c                strlcpy
 .text          0x0006aa00      0x250 /home/ubuntu/Desktop/RockboxRCC/bu800/firmware/libfirmware.a(structec.o)
                0x0006aa58                structec_convert
                0x0006ab0c                ecread
                0x0006ab58                ecwrite
 .text          0x0006ac50      0x230 /home/ubuntu/Desktop/RockboxRCC/bu800/firmware/libfirmware.a(timefuncs.o)
                0x0006ac50                valid_time
                0x0006ad10                set_time
                0x0006ad44                set_day_of_week
                0x0006addc                get_time
 .text          0x0006ae80      0x600 /home/ubuntu/Desktop/RockboxRCC/bu800/firmware/libfirmware.a(unicode.o)
                0x0006ae80                get_current_codepage_name_linux
                0x0006aeb8                utf8encode
                0x0006af60                iso_decode
                0x0006b1dc                utf16LEdecode
                0x0006b254                utf16BEdecode
                0x0006b2d0                utf8length
                0x0006b2f8                utf8decode
                0x0006b3f8                set_codepage
                0x0006b40c                utf8seek
                0x0006b450                get_codepage_name
 .text          0x0006b480      0x4c8 /home/ubuntu/Desktop/RockboxRCC/bu800/firmware/libfirmware.a(scroll_engine.o)
                0x0006b480                lcd_scroll_stop
                0x0006b4f0                lcd_scroll_stop_viewport_rect
                0x0006b608                lcd_scroll_stop_viewport
                0x0006b630                lcd_scroll_speed
                0x0006b654                lcd_scroll_step
                0x0006b668                lcd_scroll_delay
                0x0006b690                lcd_bidir_scroll
                0x0006b6a4                lcd_scroll_now
                0x0006b8f4                scroll_init
 .text          0x0006b948      0x5ac /home/ubuntu/Desktop/RockboxRCC/bu800/firmware/libfirmware.a(bidi.o)
                0x0006b948                bidi_l2v
 .text          0x0006bef4     0x13d4 /home/ubuntu/Desktop/RockboxRCC/bu800/firmware/libfirmware.a(font.o)
                0x0006c2f0                font_lock
                0x0006c320                font_init
                0x0006c350                font_filename
                0x0006c474                font_unload
                0x0006c51c                font_unload_all
                0x0006c57c                font_disable_all
                0x0006c600                font_enable_all
                0x0006c68c                font_get
                0x0006c734                font_get_width
                0x0006c7fc                font_get_bits
                0x0006c8fc                font_load_ex
                0x0006d1f0                font_load
                0x0006d208                font_getstringsize
 .text          0x0006d2c8      0x1d0 /home/ubuntu/Desktop/RockboxRCC/bu800/firmware/libfirmware.a(lru.o)
                0x0006d2c8                lru_create
                0x0006d360                lru_traverse
                0x0006d3c0                lru_touch
                0x0006d484                lru_data
 .text          0x0006d498      0x12c /home/ubuntu/Desktop/RockboxRCC/bu800/firmware/libfirmware.a(screendump.o)
                0x0006d498                screen_dump
                0x0006d5b0                screen_dump_set_hook
 .text          0x0006d5c4     0x2a60 /home/ubuntu/Desktop/RockboxRCC/bu800/firmware/libfirmware.a(lcd-16bit.o)
                0x0006dd38                lcd_clear_viewport
                0x0006de70                lcd_set_drawmode
                0x0006de88                lcd_get_drawmode
                0x0006de9c                lcd_set_foreground
                0x0006deb0                lcd_get_foreground
                0x0006dec4                lcd_set_background
                0x0006ded8                lcd_get_background
                0x0006deec                lcd_set_drawinfo
                0x0006df14                lcd_getwidth
                0x0006df28                lcd_getheight
                0x0006df3c                lcd_setfont
                0x0006df50                lcd_getfont
                0x0006df64                lcd_getstringsize
                0x0006df80                lcd_set_backdrop
                0x0006e018                lcd_get_backdrop
                0x0006e02c                lcd_clear_display
                0x0006e05c                lcd_init
                0x0006e070                lcd_drawpixel
                0x0006e0e4                lcd_fillrect
                0x0006e290                lcd_mono_bitmap_part
                0x0006e584                lcd_mono_bitmap
                0x0006e5b4                lcd_alpha_bitmap_part
                0x0006ec54                lcd_scroll_fn
                0x0006eca4                lcd_yuv_set_options
                0x0006eca8                lcd_blit_yuv
                0x0006f058                lcd_set_framebuffer
                0x0006f07c                lcd_fill_viewport
                0x0006f0a4                lcd_set_viewport
                0x0006f0e0                lcd_get_viewport
                0x0006f110                lcd_update_viewport
                0x0006f138                lcd_update_viewport_rect
                0x0006f160                lcd_putsxy
                0x0006f174                lcd_putsxyf
                0x0006f1c0                lcd_puts
                0x0006f20c                lcd_putsf
                0x0006f258                lcd_putsxy_scroll_func
                0x0006f2ac                lcd_puts_scroll
                0x0006f2e0                lcd_hline
                0x0006f430                lcd_gradient_fillrect_part
                0x0006f5c8                lcd_gradient_fillrect
                0x0006f5f8                lcd_vline
                0x0006f6b4                lcd_drawrect
                0x0006f720                lcd_draw_border_viewport
                0x0006f748                lcd_drawline
                0x0006f908                lcd_bitmap_part
                0x0006fa00                lcd_bitmap
                0x0006fa30                lcd_bitmap_transparent_part
                0x0006fb60                lcd_bmp_part
                0x0006fc24                lcd_nine_segment_bmp
                0x0006ffc0                lcd_bmp
                0x0006fff4                lcd_bitmap_transparent
 .text          0x00070024      0x180 /home/ubuntu/Desktop/RockboxRCC/bu800/firmware/libfirmware.a(diacritic.o)
                0x00070024                is_diacritic
 .text          0x000701a4       0xa4 /home/ubuntu/Desktop/RockboxRCC/bu800/firmware/libfirmware.a(led.o)
                0x000701a4                led
                0x000701f8                led_read
 .text          0x00070248      0x590 /home/ubuntu/Desktop/RockboxRCC/bu800/firmware/libfirmware.a(button.o)
                0x00070620                button_queue_count
                0x00070638                button_get
                0x0007069c                button_get_w_tmo
                0x000706f0                button_get_data
                0x00070704                button_init
                0x00070774                button_status
                0x00070788                button_status_wdata
                0x000707a4                button_clear_queue
                0x000707bc                touchscreen_last_touch
                0x000707cc                button_enable_touch
 .text          0x000707d8      0x39c /home/ubuntu/Desktop/RockboxRCC/bu800/firmware/libfirmware.a(touchscreen.o)
                0x000707d8                touchscreen_disable_mapping
                0x0007080c                touchscreen_reset_mapping
                0x00070840                touchscreen_calibrate
                0x000709bc                touchscreen_to_pixels
                0x00070b08                touchscreen_set_mode
                0x00070b1c                touchscreen_get_mode
                0x00070b2c                touchscreen_enable
                0x00070b60                touchscreen_is_enabled
 .text          0x00070b74      0x404 /home/ubuntu/Desktop/RockboxRCC/bu800/firmware/libfirmware.a(sound.o)
                0x00070bc8                sound_set_stereo_width
                0x00070bec                sound_set_channels
                0x00070c10                sound_set_treble_cutoff
                0x00070c34                sound_set_bass_cutoff
                0x00070c58                sound_val2phys
                0x00070c60                sound_unit
                0x00070c70                sound_numdecimals
                0x00070cd4                sound_steps
                0x00070ce4                sound_min
                0x00070cf4                sound_max
                0x00070da8                sound_set_tone_gain
                0x00070de0                sound_set_treble
                0x00070e28                sound_set_bass
                0x00070e70                sound_set_balance
                0x00070ea4                sound_set_volume
                0x00070ee4                sound_default
                0x00070ef4                sound_get_fn
                0x00070f04                sound_set
                0x00070f24                sound_set_pitch
                0x00070f48                sound_get_pitch
 .text          0x00070f78        0x0 /home/ubuntu/Desktop/RockboxRCC/bu800/firmware/libfirmware.a(pcm_sampr.o)
 .text          0x00070f78      0x634 /home/ubuntu/Desktop/RockboxRCC/bu800/firmware/libfirmware.a(pcm.o)
                0x00070f78                pcm_play_stop_int
                0x00070fd4                pcm_play_dma_complete_callback
                0x00071080                pcm_do_peak_calculation
                0x00071170                pcm_calculate_peaks
                0x0007120c                pcm_get_peak_buffer
                0x00071218                pcm_is_playing
                0x0007122c                pcm_is_paused
                0x00071240                pcm_postinit
                0x00071260                pcm_is_initialized
                0x00071274                pcm_play_stop
                0x000712a0                pcm_set_frequency
                0x0007130c                pcm_init
                0x00071324                pcm_get_frequency
                0x00071338                pcm_apply_settings
                0x0007149c                pcm_play_data
                0x000714e8                pcm_play_pause
 .text          0x000715ac      0x810 /home/ubuntu/Desktop/RockboxRCC/bu800/firmware/libfirmware.a(pcm_mixer.o)
                0x000719fc                mixer_channel_play_data
                0x00071b04                mixer_channel_play_pause
                0x00071b84                mixer_channel_stop
                0x00071bb8                mixer_channel_set_amplitude
                0x00071bdc                mixer_channel_status
                0x00071bf8                mixer_channel_get_bytes_waiting
                0x00071c14                mixer_channel_get_buffer
                0x00071c58                mixer_channel_calculate_peaks
                0x00071cac                mixer_adjust_channel_address
                0x00071cec                mixer_channel_set_buffer_hook
                0x00071d1c                mixer_reset
                0x00071d70                mixer_set_frequency
                0x00071dac                mixer_get_frequency
 .text          0x00071dbc       0x88 /home/ubuntu/Desktop/RockboxRCC/bu800/firmware/libfirmware.a(audiohw-swcodec.o)
                0x00071dbc                audiohw_set_channel
                0x00071dc8                audiohw_set_stereo_width
                0x00071dd4                audiohw_set_bass
                0x00071de8                audiohw_set_treble
                0x00071dfc                audiohw_set_bass_cutoff
                0x00071e08                audiohw_set_treble_cutoff
                0x00071e14                audiohw_set_tone_gain
                0x00071e20                audiohw_set_prescaler
                0x00071e2c                audiohw_set_pitch
                0x00071e38                audiohw_get_pitch
 .text          0x00071e44      0x38c /home/ubuntu/Desktop/RockboxRCC/bu800/firmware/libfirmware.a(kernel-unix.o)
                0x00071e68                wait_for_interrupt
                0x00071e88                interrupt
                0x00071ea0                timer_signal
                0x00071f00                tick_start
                0x00071fd0                timer_register
                0x00072120                timer_set_period
                0x000721a0                timer_unregister
 .text          0x000721d0       0x34 /home/ubuntu/Desktop/RockboxRCC/bu800/firmware/libfirmware.a(filesystem-unix.o)
                0x000721d0                filesize
                0x000721f4                fat_size
 .text          0x00072204       0x5c /home/ubuntu/Desktop/RockboxRCC/bu800/firmware/libfirmware.a(lc-unix.o)
                0x00072204                lc_open
                0x00072214                lc_get_header
                0x0007224c                lc_close
                0x00072258                lc_open_from_mem
 .text          0x00072260      0x438 /home/ubuntu/Desktop/RockboxRCC/bu800/firmware/libfirmware.a(lcd-android.o)
                0x00072260                lcd_init_device
                0x00072264                lcd_update
                0x000722f0                lcd_update_rect
                0x000723d8                Java_org_rockbox_RockboxFramebuffer_surfaceCreated
                0x0007260c                Java_org_rockbox_RockboxFramebuffer_surfaceDestroyed
                0x0007265c                lcd_active
                0x00072670                lcd_get_dpi
                0x00072684                touchscreen_get_scroll_threshold
 .text          0x00072698      0x1e4 /home/ubuntu/Desktop/RockboxRCC/bu800/firmware/libfirmware.a(button-android.o)
                0x00072698                Java_org_rockbox_RockboxFramebuffer_touchHandler
                0x000726c4                Java_org_rockbox_RockboxFramebuffer_buttonHandler
                0x0007278c                button_init_device
                0x00072810                touchscreen_enable_device
                0x00072814                button_read_device
                0x0007284c                Java_org_rockbox_monitors_HeadphoneMonitor_postHpStateChanged
                0x00072860                headphones_inserted
 .text          0x0007287c      0x588 /home/ubuntu/Desktop/RockboxRCC/bu800/firmware/libfirmware.a(pcm-android.o)
                0x0007287c                Java_org_rockbox_RockboxPCM_nativeWrite
                0x00072ad0                pcm_play_lock
                0x00072b08                pcm_play_unlock
                0x00072b40                pcm_dma_apply_settings
                0x00072b44                pcm_play_dma_stop
                0x00072b70                pcm_play_dma_pause
                0x00072bac                pcm_play_dma_start
                0x00072bd0                pcm_get_bytes_waiting
                0x00072be4                pcm_play_dma_get_peak_buffer
                0x00072c0c                pcm_play_dma_init
                0x00072d48                pcm_play_dma_postinit
                0x00072d4c                pcm_set_mixer_volume
                0x00072d88                pcm_shutdown
                0x00072df0                Java_org_rockbox_RockboxPCM_postVolumeChangedEvent
 .text          0x00072e04      0x10c /home/ubuntu/Desktop/RockboxRCC/bu800/firmware/libfirmware.a(powermgmt-android.o)
                0x00072e04                _battery_level
 .text          0x00072f10      0x230 /home/ubuntu/Desktop/RockboxRCC/bu800/firmware/libfirmware.a(system-android.o)
                0x00072f10                system_exception_wait
                0x00072f3c                power_off
                0x00072f54                system_reboot
                0x00072f60                system_init
                0x00072f6c                hostfs_init
                0x00072f74                hostfs_flush
                0x00072f84                JNI_OnLoad
                0x00072fa0                getJavaEnvironment
                0x00072fdc                Java_org_rockbox_RockboxService_main
                0x000730a0                is_rockbox_ready
                0x000730b4                wait_rockbox_ready
                0x00073108                set_rockbox_ready
 .text          0x00073140       0xc0 /home/ubuntu/Desktop/RockboxRCC/bu800/firmware/libfirmware.a(telephony-android.o)
                0x00073140                telephony_init_device
                0x000731c0                Java_org_rockbox_monitors_TelephonyMonitor_postCallIncoming
                0x000731e0                Java_org_rockbox_monitors_TelephonyMonitor_postCallHungUp
 .text          0x00073200      0x1a8 /home/ubuntu/Desktop/RockboxRCC/bu800/firmware/libfirmware.a(button-application.o)
                0x00073200                android_ignore_back_button
                0x00073214                key_to_button
                0x000732d0                multimedia_to_button
                0x00073350                dpad_to_button
 .text          0x000733a8       0x1c /home/ubuntu/Desktop/RockboxRCC/bu800/firmware/libfirmware.a(android.o)
                0x000733a8                audiohw_set_volume
                0x000733b4                audiohw_set_balance
                0x000733b8                audiohw_close
 .text          0x000733c4       0xd8 /home/ubuntu/Desktop/RockboxRCC/bu800/firmware/libfirmware.a(mutex.o)
                0x000733c4                mutex_init
                0x000733f4                mutex_lock
                0x00073448                mutex_unlock
 .text          0x0007349c      0x7a4 /home/ubuntu/Desktop/RockboxRCC/bu800/firmware/libfirmware.a(queue.o)
                0x0007353c                queue_enable_queue_send
                0x000735a8                queue_init
                0x00073618                queue_delete
                0x0007368c                queue_wait
                0x00073740                queue_wait_w_tmo
                0x00073830                queue_post
                0x00073884                queue_send
                0x0007392c                queue_reply
                0x00073970                queue_peek_ex
                0x00073b34                queue_peek
                0x00073b48                queue_remove_from_head
                0x00073b88                queue_empty
                0x00073ba0                queue_clear
                0x00073bb8                queue_count
                0x00073bc8                queue_broadcast
                0x00073c3c                init_queues
 .text          0x00073c40       0xbc /home/ubuntu/Desktop/RockboxRCC/bu800/firmware/libfirmware.a(semaphore.o)
                0x00073c40                semaphore_init
                0x00073c54                semaphore_wait
                0x00073cc4                semaphore_release
 .text          0x00073cfc     0x1430 /home/ubuntu/Desktop/RockboxRCC/bu800/firmware/libfirmware.a(thread.o)
                0x0007404c                wakeup_priority_protocol_release
                0x000741d8                wakeup_priority_protocol_transfer
                0x00074324                check_tmo_threads
                0x00074464                sleep_thread
                0x00074538                block_thread
                0x000745cc                block_thread_w_tmo
                0x000746bc                wakeup_thread
                0x00074764                thread_queue_wake
                0x0007478c                thread_id_entry
                0x000747a8                thread_self
                0x000747bc                thread_self_entry
                0x000747cc                core_idle
                0x000747d8                create_thread
                0x00074918                thread_set_priority
                0x00074b80                thread_get_priority
                0x00074bb8                thread_thaw
                0x00074be4                init_threads
                0x00074d08                thread_stack_usage
                0x00074d90                thread_get_name
                0x00074e8c                switch_thread
                0x00074fd0                thread_exit
                0x000750c4                thread_wait
                0x0007510c                sleep
                0x00075120                yield
 .text          0x0007512c       0x74 /home/ubuntu/Desktop/RockboxRCC/bu800/firmware/libfirmware.a(tick.o)
                0x0007512c                tick_add_task
                0x00075174                tick_remove_task
                0x00075190                init_tick
 .text          0x000751a0      0x15c /home/ubuntu/Desktop/RockboxRCC/bu800/firmware/libfirmware.a(timeout.o)
                0x000751a0                timeout_cancel
                0x00075264                timeout_register
 .text          0x000752fc        0x0 /home/ubuntu/Desktop/RockboxRCC/bu800/firmware/libfirmware.a(sysfont.o)
 .text          0x000752fc       0x14 /home/ubuntu/Desktop/RockboxRCC/bu800/firmware/libfirmware.a(ffs.o)
                0x000752fc                find_first_set_bit
 .text          0x00075310        0x0 /home/ubuntu/Desktop/RockboxRCC/bu800/firmware/libfirmware.a(memset16.o)
 .text          0x00075310       0x58 /home/ubuntu/Desktop/RockboxRCC/bu800/firmware/libfirmware.a(rtc.o)
                0x00075310                rtc_init
                0x00075314                rtc_read_datetime
                0x00075360                rtc_write_datetime
 .text          0x00075368        0x0 /home/ubuntu/Desktop/RockboxRCC/bu800/firmware/libfirmware.a(arabjoin.o)
 .text          0x00075368      0x360 /home/ubuntu/Desktop/RockboxRCC/bu800/firmware/libfirmware.a(font_cache.o)
                0x00075418                font_cache_create
                0x000754c4                font_cache_get
 .text          0x000756c8      0x188 /home/ubuntu/Desktop/RockboxRCC/bu800/lib/rbcodec/codecs/libspeex-voice.a(bits.o)
                0x000756c8                speex_bits_set_bit_buffer
                0x000756f0                speex_bits_unpack_unsigned
                0x0007578c                speex_bits_peek
                0x000757d8                speex_bits_advance
                0x0007582c                speex_bits_remaining
 .text          0x00075850       0x8c /home/ubuntu/Desktop/RockboxRCC/bu800/lib/rbcodec/codecs/libspeex-voice.a(modes_wb.o)
                0x00075850                wb_mode_query
                0x000758b8                speex_lib_get_mode
 .text          0x000758dc      0x36c /home/ubuntu/Desktop/RockboxRCC/bu800/lib/rbcodec/codecs/libspeex-voice.a(quant_lsp.o)
                0x000758dc                lsp_unquant_nb
                0x00075a70                lsp_unquant_lbr
                0x00075b70                lsp_unquant_high
 .text          0x00075c48     0x1050 /home/ubuntu/Desktop/RockboxRCC/bu800/lib/rbcodec/codecs/libspeex-voice.a(sb_celp.o)
                0x00075c48                sb_decoder_init
                0x00075d2c                sb_decoder_destroy
                0x00075d3c                sb_decode
                0x000767b0                sb_decoder_ctl
 .text          0x00076c98      0x160 /home/ubuntu/Desktop/RockboxRCC/bu800/lib/rbcodec/codecs/libspeex-voice.a(speex.o)
                0x00076c98                speex_decoder_init
                0x00076ca8                speex_decoder_destroy
                0x00076cbc                speex_decode_native
                0x00076cd0                speex_decode_int
                0x00076ce4                speex_decoder_ctl
                0x00076cf8                nb_mode_query
                0x00076d5c                speex_lib_ctl
 .text          0x00076df8      0x3b0 /home/ubuntu/Desktop/RockboxRCC/bu800/lib/rbcodec/codecs/libspeex-voice.a(filters_arm4.o)
                0x00076df8                iir_mem16
                0x00076f98                qmf_synth
                0x00077160                signal_mul
 .text          0x000771a8      0x1b0 /home/ubuntu/Desktop/RockboxRCC/bu800/lib/rbcodec/codecs/libspeex-voice.a(cb_search.o)
                0x000771a8                split_cb_shape_sign_unquant
                0x000772fc                noise_codebook_unquant
 .text          0x00077358     0x1030 /home/ubuntu/Desktop/RockboxRCC/bu800/lib/rbcodec/codecs/libspeex-voice.a(filters.o)
                0x0007759c                normalize16
                0x00077648                bw_lpc
                0x000776a0                sanitize_values32
                0x000776dc                highpass
                0x000777f4                compute_rms16
                0x00077b1c                multicomb
 .text          0x00078388        0x0 /home/ubuntu/Desktop/RockboxRCC/bu800/lib/rbcodec/codecs/libspeex-voice.a(hexc_10_32_table.o)
 .text          0x00078388        0x0 /home/ubuntu/Desktop/RockboxRCC/bu800/lib/rbcodec/codecs/libspeex-voice.a(hexc_table.o)
 .text          0x00078388        0x0 /home/ubuntu/Desktop/RockboxRCC/bu800/lib/rbcodec/codecs/libspeex-voice.a(high_lsp_tables.o)
 .text          0x00078388      0x650 /home/ubuntu/Desktop/RockboxRCC/bu800/lib/rbcodec/codecs/libspeex-voice.a(lsp.o)
                0x00078388                lsp_to_lpc
                0x000787d4                lsp_enforce_margin
                0x00078880                lsp_interpolate
 .text          0x000789d8        0x0 /home/ubuntu/Desktop/RockboxRCC/bu800/lib/rbcodec/codecs/libspeex-voice.a(lsp_tables_nb.o)
 .text          0x000789d8      0x62c /home/ubuntu/Desktop/RockboxRCC/bu800/lib/rbcodec/codecs/libspeex-voice.a(ltp.o)
                0x000789d8                inner_prod
                0x00078a78                pitch_xcorr
                0x00078c08                pitch_unquant_3tap
                0x00078f8c                forced_pitch_unquant
 .text          0x00079004       0x14 /home/ubuntu/Desktop/RockboxRCC/bu800/lib/rbcodec/codecs/libspeex-voice.a(modes.o)
                0x00079004                speex_mode_query
 .text          0x00079018     0x18ec /home/ubuntu/Desktop/RockboxRCC/bu800/lib/rbcodec/codecs/libspeex-voice.a(nb_celp.o)
                0x00079018                nb_decoder_init
                0x00079170                nb_decoder_destroy
                0x00079174                nb_decode
                0x0007a4b8                nb_decoder_ctl
 .text          0x0007a904       0xb4 /home/ubuntu/Desktop/RockboxRCC/bu800/lib/rbcodec/codecs/libspeex-voice.a(speex_callbacks.o)
                0x0007a904                speex_inband_handler
                0x0007a990                speex_default_user_handler
 .text          0x0007a9b8        0x0 /home/ubuntu/Desktop/RockboxRCC/bu800/lib/rbcodec/codecs/libspeex-voice.a(exc_10_16_table.o)
 .text          0x0007a9b8        0x0 /home/ubuntu/Desktop/RockboxRCC/bu800/lib/rbcodec/codecs/libspeex-voice.a(exc_10_32_table.o)
 .text          0x0007a9b8        0x0 /home/ubuntu/Desktop/RockboxRCC/bu800/lib/rbcodec/codecs/libspeex-voice.a(exc_20_32_table.o)
 .text          0x0007a9b8        0x0 /home/ubuntu/Desktop/RockboxRCC/bu800/lib/rbcodec/codecs/libspeex-voice.a(exc_5_256_table.o)
 .text          0x0007a9b8        0x0 /home/ubuntu/Desktop/RockboxRCC/bu800/lib/rbcodec/codecs/libspeex-voice.a(exc_5_64_table.o)
 .text          0x0007a9b8        0x0 /home/ubuntu/Desktop/RockboxRCC/bu800/lib/rbcodec/codecs/libspeex-voice.a(exc_8_128_table.o)
 .text          0x0007a9b8        0x0 /home/ubuntu/Desktop/RockboxRCC/bu800/lib/rbcodec/codecs/libspeex-voice.a(gain_table.o)
 .text          0x0007a9b8        0x0 /home/ubuntu/Desktop/RockboxRCC/bu800/lib/rbcodec/codecs/libspeex-voice.a(gain_table_lbr.o)
 .text          0x0007a9b8      0x694 /home/ubuntu/Desktop/RockboxRCC/bu800/lib/librbcodec.a(metadata.o)
                0x0007aa28                get_audio_base_codec_type
                0x0007ab18                rbcodec_format_is_atomic
                0x0007abf4                format_buffers_with_offset
                0x0007ac1c                probe_file_format
                0x0007ac94                strip_tags
                0x0007ad54                adjust_mp3entry
                0x0007ae2c                copy_mp3entry
                0x0007ae58                wipe_mp3entry
                0x0007ae70                get_metadata
                0x0007af80                mp3info
                0x0007afcc                fill_metadata_from_path
 .text          0x0007b04c     0x166c /home/ubuntu/Desktop/RockboxRCC/bu800/lib/librbcodec.a(id3tags.o)
                0x0007b5e8                id3_get_num_genre
                0x0007b6b0                setid3v1title
                0x0007b928                setid3v2title
                0x0007c618                getid3v2len
 .text          0x0007c6b8      0x21c /home/ubuntu/Desktop/RockboxRCC/bu800/lib/librbcodec.a(mp3.o)
                0x0007c6b8                get_mp3_metadata
 .text          0x0007c8d4      0xea0 /home/ubuntu/Desktop/RockboxRCC/bu800/lib/librbcodec.a(mp3data.o)
                0x0007cea4                bytes2int
                0x0007cec4                find_next_frame
                0x0007cef0                mem_find_next_frame
                0x0007cf48                get_mp3file_info
                0x0007d33c                count_mp3_frames
                0x0007d448                create_xing_header
 .text          0x0007d774      0x1d0 /home/ubuntu/Desktop/RockboxRCC/bu800/lib/librbcodec.a(channel_mode.o)
                0x0007d774                channel_mode_proc_swap
                0x0007d828                channel_mode_proc_mono_right
                0x0007d848                channel_mode_proc_mono_left
                0x0007d868                channel_mode_set_config
                0x0007d8bc                channel_mode_custom_set_width
 .text          0x0007d944      0xa04 /home/ubuntu/Desktop/RockboxRCC/bu800/lib/librbcodec.a(compressor.o)
                0x0007dd4c                get_lpf_coeff
                0x0007dd6c                get_att_rls_coeff
                0x0007e308                dsp_set_compressor
 .text          0x0007e348      0x3a8 /home/ubuntu/Desktop/RockboxRCC/bu800/lib/librbcodec.a(crossfeed.o)
                0x0007e624                dsp_set_crossfeed_type
                0x0007e670                dsp_set_crossfeed_direct_gain
                0x0007e6a0                dsp_set_crossfeed_cross_params
 .text          0x0007e6f0      0x9bc /home/ubuntu/Desktop/RockboxRCC/bu800/lib/librbcodec.a(emu10k_space80.o)
                0x0007e6f0                space80_process
                0x0007eff0                dsp_set_space80_enable
                0x0007f020                dsp_set_space80_params
 .text          0x0007f0ac      0x7e4 /home/ubuntu/Desktop/RockboxRCC/bu800/lib/librbcodec.a(dsp_core.o)
                0x0007f180                dsp_proc_enabled
                0x0007f198                dsp_proc_activate
                0x0007f20c                dsp_proc_enable
                0x0007f444                dsp_proc_active
                0x0007f45c                dsp_proc_want_format_update
                0x0007f474                dsp_proc_set_in_place
                0x0007f4bc                dsp_process
                0x0007f690                dsp_configure
                0x0007f754                dsp_get_config
                0x0007f780                dsp_get_id
                0x0007f7b0                dsp_init
 .text          0x0007f890      0x36c /home/ubuntu/Desktop/RockboxRCC/bu800/lib/librbcodec.a(surround.o)
                0x0007fb20                dsp_surround_enable
 .text          0x0007fbfc      0x21c /home/ubuntu/Desktop/RockboxRCC/bu800/lib/librbcodec.a(aatube.o)
                0x0007fddc                dsp_aatube_enable
 .text          0x0007fe18      0x5f8 /home/ubuntu/Desktop/RockboxRCC/bu800/lib/librbcodec.a(dsp_filter.o)
                0x0007fe18                filter_shelf_coefs
                0x0007ff24                filter_bishelf_coefs
                0x00080018                filter_pk_coefs
                0x0008011c                filter_ls_coefs
                0x00080278                filter_hs_coefs
                0x000803d8                filter_copy
                0x000803f8                filter_flush
 .text          0x00080410      0x370 /home/ubuntu/Desktop/RockboxRCC/bu800/lib/librbcodec.a(dsp_misc.o)
                0x000806c4                dsp_replaygain_set_settings
                0x000806e0                dsp_set_pitch
                0x00080724                dsp_get_pitch
                0x00080734                dsp_set_all_output_frequency
                0x0008076c                dsp_get_output_frequency
 .text          0x00080780      0x52c /home/ubuntu/Desktop/RockboxRCC/bu800/lib/librbcodec.a(dsp_sample_input.o)
                0x00080a60                dsp_sample_input_format_change
                0x00080abc                dsp_sample_io_configure
 .text          0x00080cac      0x294 /home/ubuntu/Desktop/RockboxRCC/bu800/lib/librbcodec.a(dsp_sample_output.o)
                0x00080cac                sample_output_dithered
                0x00080e2c                dsp_sample_output_format_change
                0x00080e84                dsp_sample_output_init
                0x00080ea0                dsp_sample_output_flush
                0x00080eec                dsp_dither_enable
 .text          0x00080f40      0x428 /home/ubuntu/Desktop/RockboxRCC/bu800/lib/librbcodec.a(eq.o)
                0x0008119c                dsp_set_eq_precut
                0x000811bc                dsp_set_eq_coefs
                0x00081300                dsp_eq_enable
 .text          0x00081368      0x2b4 /home/ubuntu/Desktop/RockboxRCC/bu800/lib/librbcodec.a(resample.o)
 .text          0x0008161c      0x18c /home/ubuntu/Desktop/RockboxRCC/bu800/lib/librbcodec.a(pga.o)
                0x00081714                pga_set_gain
                0x0008175c                pga_enable_gain
 .text          0x000817a8      0xde4 /home/ubuntu/Desktop/RockboxRCC/bu800/lib/librbcodec.a(tdspeed.o)
                0x0008240c                dsp_timestretch_enable
                0x00082448                dsp_set_timestretch
                0x000824a0                dsp_get_timestretch
                0x000824b4                dsp_timestretch_available
                0x000824cc                tdspeed_move
 .text          0x0008258c      0x26c /home/ubuntu/Desktop/RockboxRCC/bu800/lib/librbcodec.a(tone_controls.o)
                0x000826c4                tone_set_prescale
                0x00082784                tone_set_gain
                0x00082798                tone_set_bass
                0x000827ac                tone_set_treble
                0x000827c0                cutoff_set_bass
                0x000827dc                cutoff_set_treble
 .text          0x000827f8      0x598 /home/ubuntu/Desktop/RockboxRCC/bu800/lib/librbcodec.a(dsp_arm.o)
                0x000827f8                channel_mode_proc_mono
                0x00082854                channel_mode_proc_custom
                0x00082900                channel_mode_proc_karaoke
                0x00082968                crossfeed_process
                0x00082a00                crossfeed_meier_process
                0x00082a6c                resample_hermite
                0x00082cac                pga_process
                0x00082d1c                filter_process
 .text          0x00082d90      0x3f8 /home/ubuntu/Desktop/RockboxRCC/bu800/lib/librbcodec.a(replaygain.o)
                0x00082f4c                replaygain_itoa
                0x00082fbc                get_replaygain_int
                0x00082fe0                parse_replaygain
                0x00083130                parse_replaygain_int
 .text          0x00083188      0x760 /home/ubuntu/Desktop/RockboxRCC/bu800/lib/librbcodec.a(metadata_common.o)
                0x00083188                read_string
                0x0008321c                read_uint8
                0x0008322c                read_uint16be
                0x00083250                read_uint32be
                0x00083290                read_uint64be
                0x000832f0                get_uint64_le
                0x0008335c                get_long_le
                0x00083380                get_short_le
                0x00083390                get_long_be
                0x000833b4                get_short_be
                0x000833c4                get_slong
                0x000833e8                get_itunes_int32
                0x000834cc                skip_id3v2
                0x00083560                parse_tag
 .text          0x000838e8      0x164 /home/ubuntu/Desktop/RockboxRCC/bu800/lib/librbcodec.a(a52.o)
                0x000838e8                get_a52_metadata
 .text          0x00083a4c      0x274 /home/ubuntu/Desktop/RockboxRCC/bu800/lib/librbcodec.a(adx.o)
                0x00083a4c                get_adx_metadata
 .text          0x00083cc0      0x28c /home/ubuntu/Desktop/RockboxRCC/bu800/lib/librbcodec.a(aiff.o)
                0x00083cc0                get_aiff_metadata
 .text          0x00083f4c      0x6ac /home/ubuntu/Desktop/RockboxRCC/bu800/lib/librbcodec.a(asap.o)
                0x0008458c                get_asap_metadata
 .text          0x000845f8     0x1124 /home/ubuntu/Desktop/RockboxRCC/bu800/lib/librbcodec.a(asf.o)
                0x00084900                get_asf_metadata
 .text          0x0008571c      0x13c /home/ubuntu/Desktop/RockboxRCC/bu800/lib/librbcodec.a(au.o)
                0x0008571c                get_au_metadata
 .text          0x00085858      0x2a4 /home/ubuntu/Desktop/RockboxRCC/bu800/lib/librbcodec.a(ay.o)
                0x000858cc                get_ay_metadata
 .text          0x00085afc      0x334 /home/ubuntu/Desktop/RockboxRCC/bu800/lib/librbcodec.a(flac.o)
                0x00085afc                get_flac_metadata
 .text          0x00085e30      0x184 /home/ubuntu/Desktop/RockboxRCC/bu800/lib/librbcodec.a(gbs.o)
                0x00085e30                get_gbs_metadata
 .text          0x00085fb4       0xb8 /home/ubuntu/Desktop/RockboxRCC/bu800/lib/librbcodec.a(hes.o)
                0x00085fb4                get_hes_metadata
 .text          0x0008606c      0x108 /home/ubuntu/Desktop/RockboxRCC/bu800/lib/librbcodec.a(kss.o)
                0x0008606c                get_kss_metadata
 .text          0x00086174      0x268 /home/ubuntu/Desktop/RockboxRCC/bu800/lib/librbcodec.a(mod.o)
                0x00086174                get_mod_metadata
 .text          0x000863dc      0x16c /home/ubuntu/Desktop/RockboxRCC/bu800/lib/librbcodec.a(monkeys.o)
                0x000863dc                get_monkeys_metadata
 .text          0x00086548     0x119c /home/ubuntu/Desktop/RockboxRCC/bu800/lib/librbcodec.a(mp4.o)
                0x000875e0                get_mp4_metadata
 .text          0x000876e4      0x49c /home/ubuntu/Desktop/RockboxRCC/bu800/lib/librbcodec.a(mpc.o)
                0x00087800                get_musepack_metadata
 .text          0x00087b80      0x494 /home/ubuntu/Desktop/RockboxRCC/bu800/lib/librbcodec.a(nsf.o)
                0x00087b80                get_nsf_metadata
 .text          0x00088014      0x354 /home/ubuntu/Desktop/RockboxRCC/bu800/lib/librbcodec.a(ogg.o)
                0x00088014                get_ogg_metadata
 .text          0x00088368      0x234 /home/ubuntu/Desktop/RockboxRCC/bu800/lib/librbcodec.a(oma.o)
                0x00088368                get_oma_metadata
 .text          0x0008859c      0x6c8 /home/ubuntu/Desktop/RockboxRCC/bu800/lib/librbcodec.a(rm.o)
                0x000885e0                get_rm_metadata
 .text          0x00088c64      0x16c /home/ubuntu/Desktop/RockboxRCC/bu800/lib/librbcodec.a(sgc.o)
                0x00088c64                get_sgc_metadata
 .text          0x00088dd0      0x150 /home/ubuntu/Desktop/RockboxRCC/bu800/lib/librbcodec.a(sid.o)
                0x00088dd0                get_sid_metadata
 .text          0x00088f20      0x940 /home/ubuntu/Desktop/RockboxRCC/bu800/lib/librbcodec.a(smaf.o)
                0x000892b4                get_smaf_metadata
 .text          0x00089860      0x250 /home/ubuntu/Desktop/RockboxRCC/bu800/lib/librbcodec.a(spc.o)
                0x00089860                get_spc_metadata
 .text          0x00089ab0      0x174 /home/ubuntu/Desktop/RockboxRCC/bu800/lib/librbcodec.a(tta.o)
                0x00089ab0                get_tta_metadata
 .text          0x00089c24      0x394 /home/ubuntu/Desktop/RockboxRCC/bu800/lib/librbcodec.a(vgm.o)
                0x00089ce0                get_vgm_metadata
 .text          0x00089fb8      0x5ac /home/ubuntu/Desktop/RockboxRCC/bu800/lib/librbcodec.a(vorbis.o)
                0x0008a2a0                read_vorbis_tags
 .text          0x0008a564       0x38 /home/ubuntu/Desktop/RockboxRCC/bu800/lib/librbcodec.a(vox.o)
                0x0008a564                get_vox_metadata
 .text          0x0008a59c      0x854 /home/ubuntu/Desktop/RockboxRCC/bu800/lib/librbcodec.a(wave.o)
                0x0008adb8                get_wave_metadata
                0x0008add4                get_wave64_metadata
 .text          0x0008adf0      0x378 /home/ubuntu/Desktop/RockboxRCC/bu800/lib/librbcodec.a(wavpack.o)
                0x0008adf0                get_wavpack_metadata
 .text          0x0008b168      0x2d8 /home/ubuntu/Desktop/RockboxRCC/bu800/lib/librbcodec.a(emu10k_core.o)
                0x0008b168                emu10k_log15
 .text          0x0008b440      0x350 /home/ubuntu/Desktop/RockboxRCC/bu800/lib/librbcodec.a(ape.o)
                0x0008b440                read_ape_tags
 .text          0x0008b790      0x114 /home/ubuntu/Desktop/RockboxRCC/bu800/lib/libunwarminder.a(backtrace.o)
                0x0008b808                CliInvalidateW
                0x0008b81c                backtrace
 .text          0x0008b8a4       0x48 /home/ubuntu/Desktop/RockboxRCC/bu800/lib/libunwarminder.a(unwarminder.o)
                0x0008b8a4                UnwindStart
 .text          0x0008b8ec      0x810 /home/ubuntu/Desktop/RockboxRCC/bu800/lib/libunwarminder.a(unwarm_thumb.o)
                0x0008b8ec                UnwStartThumb
 .text          0x0008c0fc        0x0 /home/ubuntu/Desktop/RockboxRCC/bu800/lib/libunwarminder.a(safe_read.o)
 .text.safe_read8
                0x0008c0fc       0x34 /home/ubuntu/Desktop/RockboxRCC/bu800/lib/libunwarminder.a(safe_read.o)
                0x0008c0fc                safe_read8
 .text.safe_read16
                0x0008c130       0x34 /home/ubuntu/Desktop/RockboxRCC/bu800/lib/libunwarminder.a(safe_read.o)
                0x0008c130                safe_read16
 .text.safe_read32
                0x0008c164       0x34 /home/ubuntu/Desktop/RockboxRCC/bu800/lib/libunwarminder.a(safe_read.o)
                0x0008c164                safe_read32
 .text          0x0008c198      0x7c0 /home/ubuntu/Desktop/RockboxRCC/bu800/lib/libunwarminder.a(unwarm_arm.o)
                0x0008c198                UnwStartArm
 .text          0x0008c958      0x134 /home/ubuntu/Desktop/RockboxRCC/bu800/lib/libunwarminder.a(unwarm.o)
                0x0008c958                UnwInvalidateRegisterFile
                0x0008c978                UnwInitState
                0x0008c9e0                UnwReportRetAddr
                0x0008c9f8                UnwMemWriteRegister
                0x0008ca18                UnwMemReadRegister
 .text          0x0008ca8c      0x208 /home/ubuntu/Desktop/RockboxRCC/bu800/lib/libunwarminder.a(unwarmmem.o)
                0x0008cb14                UnwMemHashRead
                0x0008cba0                UnwMemHashWrite
                0x0008cc28                UnwMemHashGC
 .text          0x0008cc94       0xdc /home/ubuntu/Desktop/RockboxRCC/bu800/lib/libskin_parser.a(skin_buffer.o)
                0x0008cc94                skin_buffer_to_offset
                0x0008ccb8                skin_buffer_from_offset
                0x0008ccdc                skin_buffer_init
                0x0008ccf8                skin_buffer_usage
                0x0008cd14                skin_buffer_freespace
                0x0008cd34                skin_buffer_alloc
 .text          0x0008cd70     0x1800 /home/ubuntu/Desktop/RockboxRCC/bu800/lib/libskin_parser.a(skin_parser.o)
                0x0008cda4                skin_alloc_element
                0x0008cdf4                skin_alloc_params
                0x0008ce08                skin_alloc_string
                0x0008ce18                skin_alloc_children
                0x0008e138                skin_free_tree
                0x0008e13c                skin_parse
 .text          0x0008e570      0x4a8 /home/ubuntu/Desktop/RockboxRCC/bu800/lib/libskin_parser.a(skin_scan.o)
                0x0008e570                skip_comment
                0x0008e5b0                skip_enumlist
                0x0008e620                skip_tag
                0x0008e73c                skip_arglist
                0x0008e7ac                scan_string
                0x0008e8bc                scan_int
                0x0008e9ac                check_viewport
 .text          0x0008ea18       0xa4 /home/ubuntu/Desktop/RockboxRCC/bu800/lib/libskin_parser.a(tag_table.o)
                0x0008ea18                find_tag
                0x0008ea74                find_escape_character
 .text          0x0008eabc        0x0 /home/ubuntu/Desktop/RockboxRCC/bu800/lib/libfixedpoint.a(fixedpoint.o)
 .text.fp_sincos
                0x0008eabc       0x94 /home/ubuntu/Desktop/RockboxRCC/bu800/lib/libfixedpoint.a(fixedpoint.o)
                0x0008eabc                fp_sincos
 .text.fp_sqrt  0x0008eb50       0x94 /home/ubuntu/Desktop/RockboxRCC/bu800/lib/libfixedpoint.a(fixedpoint.o)
                0x0008eb50                fp_sqrt
 .text.isqrt    0x0008ebe4       0x38 /home/ubuntu/Desktop/RockboxRCC/bu800/lib/libfixedpoint.a(fixedpoint.o)
                0x0008ebe4                isqrt
 .text.fp14_sin
                0x0008ec1c       0xbc /home/ubuntu/Desktop/RockboxRCC/bu800/lib/libfixedpoint.a(fixedpoint.o)
                0x0008ec1c                fp14_sin
 .text.fp14_cos
                0x0008ecd8       0xbc /home/ubuntu/Desktop/RockboxRCC/bu800/lib/libfixedpoint.a(fixedpoint.o)
                0x0008ecd8                fp14_cos
 .text.fp16_log
                0x0008ed94       0xd4 /home/ubuntu/Desktop/RockboxRCC/bu800/lib/libfixedpoint.a(fixedpoint.o)
                0x0008ed94                fp16_log
 .text.fp16_exp
                0x0008ee68       0xe0 /home/ubuntu/Desktop/RockboxRCC/bu800/lib/libfixedpoint.a(fixedpoint.o)
                0x0008ee68                fp16_exp
 .text.fp_exp10
                0x0008ef48      0x28c /home/ubuntu/Desktop/RockboxRCC/bu800/lib/libfixedpoint.a(fixedpoint.o)
                0x0008ef48                fp_exp10
 .text.fp_log10
                0x0008f1d4      0x104 /home/ubuntu/Desktop/RockboxRCC/bu800/lib/libfixedpoint.a(fixedpoint.o)
                0x0008f1d4                fp_log10
 .text.fp_decibels
                0x0008f2d8       0x48 /home/ubuntu/Desktop/RockboxRCC/bu800/lib/libfixedpoint.a(fixedpoint.o)
                0x0008f2d8                fp_decibels
 .text.fp_factor
                0x0008f320       0x4c /home/ubuntu/Desktop/RockboxRCC/bu800/lib/libfixedpoint.a(fixedpoint.o)
                0x0008f320                fp_factor
 .text          0x0008f36c      0xc80 /home/ubuntu/Desktop/RockboxRCC/bu800/cpu-features.o
                0x0008fe98                android_getCpuFamily
                0x0008fec4                android_getCpuFeatures
                0x0008fef4                android_getCpuCount
                0x0008ff20                android_setCpu
                0x0008ff8c                android_getCpuIdArm
                0x0008ffb8                android_setCpuArm
 .text          0x0008ffec        0xc /home/ubuntu/Desktop/RockboxRCC/bu800/firmware/target/hosted/android/jni/power-manager.o
                0x0008ffec                Java_org_rockbox_jni_RockboxNativeInterface_powerOff
 .text          0x0008fff8       0xc8 /home/ubuntu/android-ndk-r9c/toolchains/arm-linux-androideabi-4.6/prebuilt/linux-x86/bin/../lib/gcc/arm-linux-androideabi/4.6/libgcc.a(_udivsi3.o)
                0x0008fff8                __udivsi3
                0x0008fff8                __aeabi_uidiv
                0x000900a0                __aeabi_uidivmod
 .text          0x000900c0       0xfc /home/ubuntu/android-ndk-r9c/toolchains/arm-linux-androideabi-4.6/prebuilt/linux-x86/bin/../lib/gcc/arm-linux-androideabi/4.6/libgcc.a(_divsi3.o)
                0x000900c0                __divsi3
                0x000900c0                __aeabi_idiv
                0x0009019c                __aeabi_idivmod
 .text          0x000901bc      0x3b8 /home/ubuntu/android-ndk-r9c/toolchains/arm-linux-androideabi-4.6/prebuilt/linux-x86/bin/../lib/gcc/arm-linux-androideabi/4.6/libgcc.a(_arm_addsubdf3.o)
                0x000901bc                __aeabi_drsub
                0x000901c4                __subdf3
                0x000901c4                __aeabi_dsub
                0x000901c8                __adddf3
                0x000901c8                __aeabi_dadd
                0x00090474                __floatunsidf
                0x00090474                __aeabi_ui2d
                0x00090498                __floatsidf
                0x00090498                __aeabi_i2d
                0x000904c0                __extendsfdf2
                0x000904c0                __aeabi_f2d
                0x00090500                __floatundidf
                0x00090500                __aeabi_ul2d
                0x00090514                __floatdidf
                0x00090514                __aeabi_l2d
 .text          0x00090574      0x470 /home/ubuntu/android-ndk-r9c/toolchains/arm-linux-androideabi-4.6/prebuilt/linux-x86/bin/../lib/gcc/arm-linux-androideabi/4.6/libgcc.a(_arm_muldivdf3.o)
                0x00090574                __muldf3
                0x00090574                __aeabi_dmul
                0x000907e0                __divdf3
                0x000907e0                __aeabi_ddiv
 .text          0x000909e4       0xa0 /home/ubuntu/android-ndk-r9c/toolchains/arm-linux-androideabi-4.6/prebuilt/linux-x86/bin/../lib/gcc/arm-linux-androideabi/4.6/libgcc.a(_arm_truncdfsf2.o)
                0x000909e4                __truncdfsf2
                0x000909e4                __aeabi_d2f
 .text          0x00090a84      0x250 /home/ubuntu/android-ndk-r9c/toolchains/arm-linux-androideabi-4.6/prebuilt/linux-x86/bin/../lib/gcc/arm-linux-androideabi/4.6/libgcc.a(_arm_addsubsf3.o)
                0x00090a84                __aeabi_frsub
                0x00090a8c                __subsf3
                0x00090a8c                __aeabi_fsub
                0x00090a90                __addsf3
                0x00090a90                __aeabi_fadd
                0x00090c20                __floatunsisf
                0x00090c20                __aeabi_ui2f
                0x00090c28                __floatsisf
                0x00090c28                __aeabi_i2f
                0x00090c48                __floatundisf
                0x00090c48                __aeabi_ul2f
                0x00090c58                __floatdisf
                0x00090c58                __aeabi_l2f
 .text          0x00090cd4      0x2f8 /home/ubuntu/android-ndk-r9c/toolchains/arm-linux-androideabi-4.6/prebuilt/linux-x86/bin/../lib/gcc/arm-linux-androideabi/4.6/libgcc.a(_arm_muldivsf3.o)
                0x00090cd4                __mulsf3
                0x00090cd4                __aeabi_fmul
                0x00090e6c                __divsf3
                0x00090e6c                __aeabi_fdiv
 .text          0x00090fcc       0x5c /home/ubuntu/android-ndk-r9c/toolchains/arm-linux-androideabi-4.6/prebuilt/linux-x86/bin/../lib/gcc/arm-linux-androideabi/4.6/libgcc.a(_arm_fixsfsi.o)
                0x00090fcc                __fixsfsi
                0x00090fcc                __aeabi_f2iz
 .text          0x00091028       0x44 /home/ubuntu/android-ndk-r9c/toolchains/arm-linux-androideabi-4.6/prebuilt/linux-x86/bin/../lib/gcc/arm-linux-androideabi/4.6/libgcc.a(_aeabi_ldivmod.o)
                0x00091028                __aeabi_ldivmod
 .text          0x0009106c       0x3c /home/ubuntu/android-ndk-r9c/toolchains/arm-linux-androideabi-4.6/prebuilt/linux-x86/bin/../lib/gcc/arm-linux-androideabi/4.6/libgcc.a(_aeabi_uldivmod.o)
                0x0009106c                __aeabi_uldivmod
 .text          0x000910a8       0x10 /home/ubuntu/android-ndk-r9c/toolchains/arm-linux-androideabi-4.6/prebuilt/linux-x86/bin/../lib/gcc/arm-linux-androideabi/4.6/libgcc.a(_dvmd_lnx.o)
                0x000910a8                __aeabi_idiv0
                0x000910a8                __aeabi_ldiv0
 .text          0x000910b8       0x38 /home/ubuntu/android-ndk-r9c/toolchains/arm-linux-androideabi-4.6/prebuilt/linux-x86/bin/../lib/gcc/arm-linux-androideabi/4.6/libgcc.a(_popcountsi2.o)
                0x000910b8                __popcountsi2
 .text          0x000910f0       0x78 /home/ubuntu/android-ndk-r9c/toolchains/arm-linux-androideabi-4.6/prebuilt/linux-x86/bin/../lib/gcc/arm-linux-androideabi/4.6/libgcc.a(bpabi.o)
                0x000910f0                __gnu_ldivmod_helper
                0x0009112c                __gnu_uldivmod_helper
 .text          0x00091168      0xddc /home/ubuntu/android-ndk-r9c/toolchains/arm-linux-androideabi-4.6/prebuilt/linux-x86/bin/../lib/gcc/arm-linux-androideabi/4.6/libgcc.a(unwind-arm.o)
                0x000919ac                __aeabi_unwind_cpp_pr0
                0x000919a4                __aeabi_unwind_cpp_pr1
                0x0009199c                __aeabi_unwind_cpp_pr2
                0x0009152c                _Unwind_VRS_Get
                0x00091598                _Unwind_VRS_Set
                0x000919b4                _Unwind_VRS_Pop
                0x00091d0c                _Unwind_GetCFA
                0x00091d14                __gnu_Unwind_RaiseException
                0x00091db8                __gnu_Unwind_ForcedUnwind
                0x00091dd4                __gnu_Unwind_Resume
                0x00091e40                __gnu_Unwind_Resume_or_Rethrow
                0x00091e60                _Unwind_Complete
                0x00091e64                _Unwind_DeleteException
                0x00091e84                __gnu_Unwind_Backtrace
 .text          0x00091f44      0x1a8 /home/ubuntu/android-ndk-r9c/toolchains/arm-linux-androideabi-4.6/prebuilt/linux-x86/bin/../lib/gcc/arm-linux-androideabi/4.6/libgcc.a(libunwind.o)
                0x00091f44                __restore_core_regs
                0x00091f44                restore_core_regs
                0x00091f58                __gnu_Unwind_Restore_VFP
                0x00091f60                __gnu_Unwind_Save_VFP
                0x00091f68                __gnu_Unwind_Restore_VFP_D
                0x00091f70                __gnu_Unwind_Save_VFP_D
                0x00091f78                __gnu_Unwind_Restore_VFP_D_16_to_31
                0x00091f80                __gnu_Unwind_Save_VFP_D_16_to_31
                0x00091f88                __gnu_Unwind_Restore_WMMXD
                0x00091fcc                __gnu_Unwind_Save_WMMXD
                0x00092010                __gnu_Unwind_Restore_WMMXC
                0x00092024                __gnu_Unwind_Save_WMMXC
                0x00092038                ___Unwind_RaiseException
                0x00092038                _Unwind_RaiseException
                0x0009205c                ___Unwind_Resume
                0x0009205c                _Unwind_Resume
                0x00092080                ___Unwind_Resume_or_Rethrow
                0x00092080                _Unwind_Resume_or_Rethrow
                0x000920a4                ___Unwind_ForcedUnwind
                0x000920a4                _Unwind_ForcedUnwind
                0x000920c8                ___Unwind_Backtrace
                0x000920c8                _Unwind_Backtrace
 .text          0x000920ec      0x4a0 /home/ubuntu/android-ndk-r9c/toolchains/arm-linux-androideabi-4.6/prebuilt/linux-x86/bin/../lib/gcc/arm-linux-androideabi/4.6/libgcc.a(pr-support.o)
                0x00092144                __gnu_unwind_execute
                0x000924d8                __gnu_unwind_frame
                0x00092518                _Unwind_GetRegionStart
                0x00092544                _Unwind_GetLanguageSpecificData
                0x0009257c                _Unwind_GetDataRelBase
                0x00092584                _Unwind_GetTextRelBase
 .text          0x0009258c        0x0 /home/ubuntu/android-ndk-r9c/toolchains/arm-linux-androideabi-4.6/prebuilt/linux-x86/bin/../lib/gcc/arm-linux-androideabi/4.6/libgcc.a(_popcount_tab.o)
 .text          0x0009258c      0x484 /home/ubuntu/android-ndk-r9c/toolchains/arm-linux-androideabi-4.6/prebuilt/linux-x86/bin/../lib/gcc/arm-linux-androideabi/4.6/libgcc.a(_divdi3.o)
                0x0009258c                __divdi3
 .text          0xffffffffffffffff      0x42c /home/ubuntu/android-ndk-r9c/toolchains/arm-linux-androideabi-4.6/prebuilt/linux-x86/bin/../lib/gcc/arm-linux-androideabi/4.6/libgcc.a(_udivdi3.o)
                0x00092a10                __udivdi3
 .text          0x00092e3c        0x0 /home/ubuntu/android-ndk-r9c/platforms/android-19/arch-arm/usr/lib/crtend_so.o

.icode          0x00092e3c      0x200
 .icode         0x00092e3c       0x7c /home/ubuntu/Desktop/RockboxRCC/bu800/firmware/libfirmware.a(memset16.o)
                0x00092e3c                memset16
 .icode         0xffffffffffffffff      0x184 /home/ubuntu/Desktop/RockboxRCC/bu800/lib/librbcodec.a(dsp_arm.o)
                0x00092eb8                sample_output_mono
                0x00092f58                sample_output_stereo

.rodata         0x00093040    0x4f2a0
 .rodata        0x00093040       0x14 /home/ubuntu/Desktop/RockboxRCC/bu800/apps/bookmark.o
 ** merge strings
                0x00093058     0x5f65
 .rodata        0x00098fc0       0x18 /home/ubuntu/Desktop/RockboxRCC/bu800/apps/debug_menu.o
 .rodata        0x00098fd8       0x18 /home/ubuntu/Desktop/RockboxRCC/bu800/apps/menu.o
 .rodata        0x00098ff0       0x90 /home/ubuntu/Desktop/RockboxRCC/bu800/apps/menus/display_menu.o
 .rodata        0x00099080       0xc0 /home/ubuntu/Desktop/RockboxRCC/bu800/apps/menus/theme_menu.o
 .rodata        0x00099140       0x30 /home/ubuntu/Desktop/RockboxRCC/bu800/apps/menus/plugin_menu.o
 .rodata        0x00099170       0x64 /home/ubuntu/Desktop/RockboxRCC/bu800/apps/menus/eq_menu.o
 .rodata        0x000991d8       0x10 /home/ubuntu/Desktop/RockboxRCC/bu800/apps/buffering.o
 .rodata        0x000991e8        0x8 /home/ubuntu/Desktop/RockboxRCC/bu800/apps/voice_thread.o
 .rodata        0x000991f0       0x90 /home/ubuntu/Desktop/RockboxRCC/bu800/apps/menus/main_menu.o
 .rodata        0x00099280       0x3c /home/ubuntu/Desktop/RockboxRCC/bu800/apps/menus/playback_menu.o
 .rodata        0x000992bc       0x54 /home/ubuntu/Desktop/RockboxRCC/bu800/apps/menus/playlist_menu.o
 .rodata        0x00099310       0xe4 /home/ubuntu/Desktop/RockboxRCC/bu800/apps/menus/settings_menu.o
 .rodata        0x000993f4       0x30 /home/ubuntu/Desktop/RockboxRCC/bu800/apps/menus/sound_menu.o
 .rodata        0x00099424        0xc /home/ubuntu/Desktop/RockboxRCC/bu800/apps/menus/time_menu.o
 .rodata        0x00099430       0x10 /home/ubuntu/Desktop/RockboxRCC/bu800/apps/misc.o
                0x00099430                byte_units
 .rodata        0x00099440       0x84 /home/ubuntu/Desktop/RockboxRCC/bu800/apps/onplay.o
 .rodata        0x000994c8       0x28 /home/ubuntu/Desktop/RockboxRCC/bu800/apps/playlist.o
 .rodata        0x000994f0        0xc /home/ubuntu/Desktop/RockboxRCC/bu800/apps/playlist_viewer.o
 .rodata        0x000994fc       0x60 /home/ubuntu/Desktop/RockboxRCC/bu800/apps/root_menu.o
 .rodata        0x0009955c       0x68 /home/ubuntu/Desktop/RockboxRCC/bu800/apps/screens.o
 .rodata        0x000995c8       0x48 /home/ubuntu/Desktop/RockboxRCC/bu800/apps/settings_list.o
                0x000995c8                nb_settings
 .rodata        0x00099610       0x78 /home/ubuntu/Desktop/RockboxRCC/bu800/apps/talk.o
 .rodata        0x00099688       0x40 /home/ubuntu/Desktop/RockboxRCC/bu800/apps/gui/pitchscreen.o
 .rodata        0x000996c8        0x4 /home/ubuntu/Desktop/RockboxRCC/bu800/apps/hosted/android/notification.o
 .rodata        0x000996cc       0x50 /home/ubuntu/Desktop/RockboxRCC/bu800/apps/recorder/bmp.o
                0x0009970c                dither_table
 .rodata        0x0009971c       0xa0 /home/ubuntu/Desktop/RockboxRCC/bu800/apps/recorder/icons.o
                0x0009971c                bitmap_icon_disk
                0x00099728                bitmap_icons_7x8
                0x000997a8                bitmap_icons_5x8
 .rodata        0x000997bc       0xa0 /home/ubuntu/Desktop/RockboxRCC/bu800/apps/recorder/peakmeter.o
 .rodata        0x0009985c      0x730 /home/ubuntu/Desktop/RockboxRCC/bu800/apps/recorder/jpeg_load.o
 .rodata        0x00099f90       0x18 /home/ubuntu/Desktop/RockboxRCC/bu800/apps/recorder/albumart.o
 .rodata        0x00099fa8       0x10 /home/ubuntu/Desktop/RockboxRCC/bu800/apps/gui/color_picker.o
 .rodata        0x00099fb8        0x8 /home/ubuntu/Desktop/RockboxRCC/bu800/apps/audio_thread.o
 .rodata        0x00099fc0        0xc /home/ubuntu/Desktop/RockboxRCC/bu800/apps/pcmbuf.o
 .rodata        0x00099fd0        0x8 /home/ubuntu/Desktop/RockboxRCC/bu800/apps/codec_thread.o
 .rodata        0x00099fd8       0x50 /home/ubuntu/Desktop/RockboxRCC/bu800/apps/playback.o
 .rodata        0x0009a028       0x30 /home/ubuntu/Desktop/RockboxRCC/bu800/apps/tagcache.o
 .rodata        0x0009a058      0x69c /home/ubuntu/Desktop/RockboxRCC/bu800/apps/keymaps/keymap-touchscreen.o
 .rodata        0x0009a6f4      0x204 /home/ubuntu/Desktop/RockboxRCC/bu800/apps/keymaps/keymap-android.o
 .rodata        0x0009a8f8       0xc0 /home/ubuntu/Desktop/RockboxRCC/bu800/apps/bitmaps/mono/default_icons.o
                0x0009a8f8                default_icons
 .rodata        0x0009a9b8    0x3de00 /home/ubuntu/Desktop/RockboxRCC/bu800/apps/bitmaps/native/rockboxlogo.640x198x16.o
                0x0009a9b8                rockboxlogo
 .rodata        0x000d87b8     0x4200 /home/ubuntu/Desktop/RockboxRCC/bu800/apps/bitmaps/native/usblogo.176x48x16.o
                0x000d87b8                usblogo
 .rodata        0x000dc9b8     0x1dd0 /home/ubuntu/Desktop/RockboxRCC/bu800/lang/lang_core.o
                0x000dc9b8                core_language_builtin
 .rodata        0x000de788       0x20 /home/ubuntu/Desktop/RockboxRCC/bu800/firmware/libfirmware.a(powermgmt.o)
 .rodata        0x000de7a8       0x28 /home/ubuntu/Desktop/RockboxRCC/bu800/firmware/libfirmware.a(version.o)
                0x000de7a8                rbversion
 .rodata        0x000de7d0       0x40 /home/ubuntu/Desktop/RockboxRCC/bu800/firmware/libfirmware.a(crc32.o)
 .rodata        0x000de810       0x18 /home/ubuntu/Desktop/RockboxRCC/bu800/firmware/libfirmware.a(format.o)
 .rodata        0x000de828        0x8 /home/ubuntu/Desktop/RockboxRCC/bu800/firmware/libfirmware.a(rbpaths.o)
 .rodata        0x000de830        0xc /home/ubuntu/Desktop/RockboxRCC/bu800/firmware/libfirmware.a(timefuncs.o)
 .rodata        0x000de83c       0x18 /home/ubuntu/Desktop/RockboxRCC/bu800/firmware/libfirmware.a(unicode.o)
 .rodata        0x000de858       0x20 /home/ubuntu/Desktop/RockboxRCC/bu800/firmware/libfirmware.a(scroll_engine.o)
 .rodata        0x000de878       0x44 /home/ubuntu/Desktop/RockboxRCC/bu800/firmware/libfirmware.a(screendump.o)
 .rodata        0x000de8bc      0x238 /home/ubuntu/Desktop/RockboxRCC/bu800/firmware/libfirmware.a(diacritic.o)
 .rodata        0x000deaf4       0x40 /home/ubuntu/Desktop/RockboxRCC/bu800/firmware/libfirmware.a(touchscreen.o)
                0x000deb18                default_calibration_parameters
 .rodata        0x000deb34       0x34 /home/ubuntu/Desktop/RockboxRCC/bu800/firmware/libfirmware.a(pcm_sampr.o)
                0x000deb34                hw_freq_sampr
                0x000deb38                audio_master_sampr_list
 .rodata        0x000deb68       0x10 /home/ubuntu/Desktop/RockboxRCC/bu800/firmware/libfirmware.a(kernel-unix.o)
 .rodata        0x000deb78        0x8 /home/ubuntu/Desktop/RockboxRCC/bu800/firmware/libfirmware.a(thread.o)
 .rodata        0x000deb80      0x67c /home/ubuntu/Desktop/RockboxRCC/bu800/firmware/libfirmware.a(sysfont.o)
 .rodata        0x000df1fc      0x478 /home/ubuntu/Desktop/RockboxRCC/bu800/firmware/libfirmware.a(arabjoin.o)
                0x000df1fc                jointable
                0x000df64c                lamaleph
                0x000df66c                zwj
 .rodata        0x000df674       0xa0 /home/ubuntu/Desktop/RockboxRCC/bu800/lib/rbcodec/codecs/libspeex-voice.a(sb_celp.o)
 .rodata        0x000df714       0x6c /home/ubuntu/Desktop/RockboxRCC/bu800/lib/rbcodec/codecs/libspeex-voice.a(filters.o)
                0x000df754                shift_filt
 .rodata        0x000df780      0x140 /home/ubuntu/Desktop/RockboxRCC/bu800/lib/rbcodec/codecs/libspeex-voice.a(hexc_10_32_table.o)
                0x000df780                hexc_10_32_table
 .rodata        0x000df8c0      0x400 /home/ubuntu/Desktop/RockboxRCC/bu800/lib/rbcodec/codecs/libspeex-voice.a(hexc_table.o)
                0x000df8c0                hexc_table
 .rodata        0x000dfcc0      0x400 /home/ubuntu/Desktop/RockboxRCC/bu800/lib/rbcodec/codecs/libspeex-voice.a(high_lsp_tables.o)
                0x000dfcc0                high_lsp_cdbk2
                0x000dfec0                high_lsp_cdbk
 .rodata        0x000e00c0      0x780 /home/ubuntu/Desktop/RockboxRCC/bu800/lib/rbcodec/codecs/libspeex-voice.a(lsp_tables_nb.o)
                0x000e00c0                cdbk_nb_high2
                0x000e0200                cdbk_nb_high1
                0x000e0340                cdbk_nb_low2
                0x000e0480                cdbk_nb_low1
                0x000e05c0                cdbk_nb
 .rodata        0x000e0840       0xcc /home/ubuntu/Desktop/RockboxRCC/bu800/lib/rbcodec/codecs/libspeex-voice.a(nb_celp.o)
                0x000e088c                ol_gain_table
                0x000e086c                exc_gain_quant_scal3
                0x000e0864                exc_gain_quant_scal1
                0x000e0850                attenuation
                0x000e0868                exc_gain_quant_scal1_bound
                0x000e087c                exc_gain_quant_scal3_bound
 .rodata        0x000e090c       0xa0 /home/ubuntu/Desktop/RockboxRCC/bu800/lib/rbcodec/codecs/libspeex-voice.a(exc_10_16_table.o)
                0x000e090c                exc_10_16_table
 .rodata        0x000e09ac      0x140 /home/ubuntu/Desktop/RockboxRCC/bu800/lib/rbcodec/codecs/libspeex-voice.a(exc_10_32_table.o)
                0x000e09ac                exc_10_32_table
 .rodata        0x000e0aec      0x280 /home/ubuntu/Desktop/RockboxRCC/bu800/lib/rbcodec/codecs/libspeex-voice.a(exc_20_32_table.o)
                0x000e0aec                exc_20_32_table
 .rodata        0x000e0d6c      0x500 /home/ubuntu/Desktop/RockboxRCC/bu800/lib/rbcodec/codecs/libspeex-voice.a(exc_5_256_table.o)
                0x000e0d6c                exc_5_256_table
 .rodata        0x000e126c      0x140 /home/ubuntu/Desktop/RockboxRCC/bu800/lib/rbcodec/codecs/libspeex-voice.a(exc_5_64_table.o)
                0x000e126c                exc_5_64_table
 .rodata        0x000e13ac      0x400 /home/ubuntu/Desktop/RockboxRCC/bu800/lib/rbcodec/codecs/libspeex-voice.a(exc_8_128_table.o)
                0x000e13ac                exc_8_128_table
 .rodata        0x000e17ac      0x200 /home/ubuntu/Desktop/RockboxRCC/bu800/lib/rbcodec/codecs/libspeex-voice.a(gain_table.o)
                0x000e17ac                gain_cdbk_nb
 .rodata        0x000e19ac       0x80 /home/ubuntu/Desktop/RockboxRCC/bu800/lib/rbcodec/codecs/libspeex-voice.a(gain_table_lbr.o)
                0x000e19ac                gain_cdbk_lbr
 .rodata        0x000e1a30      0x218 /home/ubuntu/Desktop/RockboxRCC/bu800/lib/librbcodec.a(metadata.o)
 .rodata        0x000e1c48        0x8 /home/ubuntu/Desktop/RockboxRCC/bu800/lib/librbcodec.a(id3tags.o)
 .rodata        0x000e1c50       0xd8 /home/ubuntu/Desktop/RockboxRCC/bu800/lib/librbcodec.a(mp3data.o)
 .rodata        0x000e1d28      0x114 /home/ubuntu/Desktop/RockboxRCC/bu800/lib/librbcodec.a(compressor.o)
 .rodata        0x000e1e3c        0x4 /home/ubuntu/Desktop/RockboxRCC/bu800/lib/librbcodec.a(dsp_core.o)
 .rodata        0x000e1e40       0x10 /home/ubuntu/Desktop/RockboxRCC/bu800/lib/librbcodec.a(tdspeed.o)
 .rodata        0x000e1e50       0x18 /home/ubuntu/Desktop/RockboxRCC/bu800/lib/librbcodec.a(metadata_common.o)
 .rodata        0x000e1e68       0x74 /home/ubuntu/Desktop/RockboxRCC/bu800/lib/librbcodec.a(a52.o)
 .rodata        0x000e1edc       0x80 /home/ubuntu/Desktop/RockboxRCC/bu800/lib/librbcodec.a(asf.o)
 .rodata        0x000e1f5c        0xc /home/ubuntu/Desktop/RockboxRCC/bu800/lib/librbcodec.a(au.o)
 .rodata        0x000e1f68       0x30 /home/ubuntu/Desktop/RockboxRCC/bu800/lib/librbcodec.a(mp4.o)
 .rodata        0x000e1f98       0x10 /home/ubuntu/Desktop/RockboxRCC/bu800/lib/librbcodec.a(mpc.o)
 .rodata        0x000e1fa8        0xc /home/ubuntu/Desktop/RockboxRCC/bu800/lib/librbcodec.a(oma.o)
 .rodata        0x000e1fb4       0x38 /home/ubuntu/Desktop/RockboxRCC/bu800/lib/librbcodec.a(smaf.o)
 .rodata        0x000e1fec        0x4 /home/ubuntu/Desktop/RockboxRCC/bu800/lib/librbcodec.a(vgm.o)
                0x000e1fec                gd3_header_size
 .rodata        0x000e1ff0       0x68 /home/ubuntu/Desktop/RockboxRCC/bu800/lib/librbcodec.a(wave.o)
 .rodata        0x000e2058       0x3c /home/ubuntu/Desktop/RockboxRCC/bu800/lib/librbcodec.a(wavpack.o)
 .rodata        0x000e2098       0x10 /home/ubuntu/Desktop/RockboxRCC/bu800/lib/libskin_parser.a(tag_table.o)
 .rodata.atan_table
                0x000e20a8       0x80 /home/ubuntu/Desktop/RockboxRCC/bu800/lib/libfixedpoint.a(fixedpoint.o)
 .rodata.sin_table
                0x000e2128       0xb8 /home/ubuntu/Desktop/RockboxRCC/bu800/lib/libfixedpoint.a(fixedpoint.o)
 .rodata        0x000e21e0      0x100 /home/ubuntu/android-ndk-r9c/toolchains/arm-linux-androideabi-4.6/prebuilt/linux-x86/bin/../lib/gcc/arm-linux-androideabi/4.6/libgcc.a(_popcount_tab.o)
                0x000e21e0                __popcount_tab

.ARM.extab      0x000e22e0       0x48
 .ARM.extab     0x000e22e0        0xc /home/ubuntu/android-ndk-r9c/toolchains/arm-linux-androideabi-4.6/prebuilt/linux-x86/bin/../lib/gcc/arm-linux-androideabi/4.6/libgcc.a(_dvmd_lnx.o)
 .ARM.extab     0x000e22ec        0x0 /home/ubuntu/android-ndk-r9c/toolchains/arm-linux-androideabi-4.6/prebuilt/linux-x86/bin/../lib/gcc/arm-linux-androideabi/4.6/libgcc.a(_popcountsi2.o)
 .ARM.extab     0x000e22ec        0x0 /home/ubuntu/android-ndk-r9c/toolchains/arm-linux-androideabi-4.6/prebuilt/linux-x86/bin/../lib/gcc/arm-linux-androideabi/4.6/libgcc.a(bpabi.o)
 .ARM.extab     0x000e22ec       0x24 /home/ubuntu/android-ndk-r9c/toolchains/arm-linux-androideabi-4.6/prebuilt/linux-x86/bin/../lib/gcc/arm-linux-androideabi/4.6/libgcc.a(unwind-arm.o)
 .ARM.extab     0x000e2310       0x18 /home/ubuntu/android-ndk-r9c/toolchains/arm-linux-androideabi-4.6/prebuilt/linux-x86/bin/../lib/gcc/arm-linux-androideabi/4.6/libgcc.a(pr-support.o)
 .ARM.extab     0x000e2328        0x0 /home/ubuntu/android-ndk-r9c/toolchains/arm-linux-androideabi-4.6/prebuilt/linux-x86/bin/../lib/gcc/arm-linux-androideabi/4.6/libgcc.a(_divdi3.o)
 .ARM.extab     0x000e2328        0x0 /home/ubuntu/android-ndk-r9c/toolchains/arm-linux-androideabi-4.6/prebuilt/linux-x86/bin/../lib/gcc/arm-linux-androideabi/4.6/libgcc.a(_udivdi3.o)

.ARM.exidx      0x000e2328      0x100
 .ARM.exidx     0x000e2328        0x8 /home/ubuntu/android-ndk-r9c/toolchains/arm-linux-androideabi-4.6/prebuilt/linux-x86/bin/../lib/gcc/arm-linux-androideabi/4.6/libgcc.a(_dvmd_lnx.o)
 .ARM.exidx     0x000e2330        0x8 /home/ubuntu/android-ndk-r9c/toolchains/arm-linux-androideabi-4.6/prebuilt/linux-x86/bin/../lib/gcc/arm-linux-androideabi/4.6/libgcc.a(_popcountsi2.o)
 .ARM.exidx     0xffffffffffffffff       0x10 /home/ubuntu/android-ndk-r9c/toolchains/arm-linux-androideabi-4.6/prebuilt/linux-x86/bin/../lib/gcc/arm-linux-androideabi/4.6/libgcc.a(bpabi.o)
 .ARM.exidx     0xffffffffffffffff       0xb0 /home/ubuntu/android-ndk-r9c/toolchains/arm-linux-androideabi-4.6/prebuilt/linux-x86/bin/../lib/gcc/arm-linux-androideabi/4.6/libgcc.a(unwind-arm.o)
 ** ARM cantunwind
                0x000e23d8        0x8
 .ARM.exidx     0xffffffffffffffff       0x38 /home/ubuntu/android-ndk-r9c/toolchains/arm-linux-androideabi-4.6/prebuilt/linux-x86/bin/../lib/gcc/arm-linux-androideabi/4.6/libgcc.a(pr-support.o)
 ** ARM cantunwind
                0x000e2408        0x8
 .ARM.exidx     0x000e2410        0x8 /home/ubuntu/android-ndk-r9c/toolchains/arm-linux-androideabi-4.6/prebuilt/linux-x86/bin/../lib/gcc/arm-linux-androideabi/4.6/libgcc.a(_divdi3.o)
 .ARM.exidx     0x000e2418        0x8 /home/ubuntu/android-ndk-r9c/toolchains/arm-linux-androideabi-4.6/prebuilt/linux-x86/bin/../lib/gcc/arm-linux-androideabi/4.6/libgcc.a(_udivdi3.o)
 ** ARM cantunwind
                0x000e2420        0x8

.data.rel.ro.local
                0x000e3f04     0x275c
 .data.rel.ro.local
                0x000e3f04        0xc /home/ubuntu/Desktop/RockboxRCC/bu800/apps/bookmark.o
 .data.rel.ro.local
                0x000e3f10       0x60 /home/ubuntu/Desktop/RockboxRCC/bu800/apps/debug_menu.o
 .data.rel.ro.local
                0x000e3f70      0x4c0 /home/ubuntu/Desktop/RockboxRCC/bu800/apps/filetypes.o
 .data.rel.ro.local
                0x000e4430       0x18 /home/ubuntu/Desktop/RockboxRCC/bu800/apps/menu.o
 .data.rel.ro.local
                0x000e4448       0x90 /home/ubuntu/Desktop/RockboxRCC/bu800/apps/menus/display_menu.o
                0x000e4448                display_menu
                0x000e4454                touchscreen_menu
                0x000e4460                touchscreen_menu_reset_calibration
                0x000e446c                touchscreen_menu_calibrate
                0x000e4478                peak_meter_menu
                0x000e4484                peak_meter_max_item
                0x000e4490                peak_meter_min_item
                0x000e449c                peak_meter_scale_item
                0x000e44a8                scroll_settings_menu
                0x000e44b4                lcd_settings
 .data.rel.ro.local
                0x000e44d8      0x100 /home/ubuntu/Desktop/RockboxRCC/bu800/apps/menus/theme_menu.o
                0x000e44d8                theme_menu
                0x000e44e4                browse_themes
                0x000e44f0                browse_wps
                0x000e44fc                browse_sbs
                0x000e4508                browse_fonts
                0x000e4514                bars_menu
                0x000e4520                colors_settings
                0x000e452c                lss_settings
                0x000e4538                reset_colors
                0x000e4544                set_sep_col
                0x000e4550                set_lst_col
                0x000e455c                set_lse_col
                0x000e4568                set_lss_col
                0x000e4574                set_fg_col
                0x000e4580                set_bg_col
                0x000e458c                clear_main_bd
 .data.rel.ro.local
                0x000e45d8       0x60 /home/ubuntu/Desktop/RockboxRCC/bu800/apps/menus/plugin_menu.o
                0x000e45f0                plugin_menu
                0x000e45fc                demos_item
                0x000e4608                apps_item
                0x000e4614                games_item
 .data.rel.ro.local
                0x000e4638       0x98 /home/ubuntu/Desktop/RockboxRCC/bu800/apps/menus/eq_menu.o
                0x000e4654                equalizer_menu
                0x000e4660                eq_reset
                0x000e466c                eq_browse
                0x000e4678                eq_save
                0x000e4684                eq_graphical
                0x000e4690                advanced_menu
                0x000e469c                gain_menu
 .data.rel.ro.local
                0x000e46d0       0x10 /home/ubuntu/Desktop/RockboxRCC/bu800/apps/rbcodec_helpers.o
 .data.rel.ro.local
                0x000e46e0       0xe0 /home/ubuntu/Desktop/RockboxRCC/bu800/apps/menus/main_menu.o
                0x000e46f8                main_menu_
                0x000e4704                info_menu
                0x000e4710                debug_menu_item
                0x000e471c                show_runtime_item
                0x000e4728                show_credits_item
                0x000e4734                show_info_item
                0x000e4740                manage_settings
                0x000e474c                reset_settings_item
                0x000e4758                save_sound_item
                0x000e4764                save_theme_item
                0x000e4770                save_settings_item
                0x000e477c                browse_configs
 .data.rel.ro.local
                0x000e47c0       0x3c /home/ubuntu/Desktop/RockboxRCC/bu800/apps/menus/playback_menu.o
                0x000e47c0                playback_settings
                0x000e47cc                unplug_menu
                0x000e47d8                replaygain_settings_menu
                0x000e47e4                crossfade_settings_menu
                0x000e47f0                ff_rewind_settings_menu
 .data.rel.ro.local
                0x000e47fc       0x64 /home/ubuntu/Desktop/RockboxRCC/bu800/apps/menus/playlist_menu.o
                0x000e47fc                playlist_options
                0x000e4808                playlist_settings
                0x000e4814                viewer_settings_menu
                0x000e4820                clear_catalog_directory_item
                0x000e482c                save_playlist
                0x000e4838                view_cur_playlist
                0x000e4844                create_playlist_item
 .data.rel.ro.local
                0x000e4860      0x13c /home/ubuntu/Desktop/RockboxRCC/bu800/apps/menus/settings_menu.o
                0x000e4870                settings_menu_item
                0x000e487c                browse_langs
                0x000e4888                hotkey_menu
                0x000e4894                voice_settings_menu
                0x000e48a0                autoresume_menu
                0x000e48ac                bookmark_settings_menu
                0x000e48b8                startup_shutdown_menu
                0x000e48c4                sleeptimer_toggle
                0x000e48d0                system_menu
                0x000e48dc                keyclick_menu
                0x000e48e8                limits_menu
                0x000e48f4                battery_menu
                0x000e4900                file_menu
                0x000e490c                clear_start_directory_item
                0x000e4918                tagcache_menu
                0x000e4924                tc_paths
                0x000e4930                tc_import
                0x000e493c                tc_export
                0x000e4948                tc_update
                0x000e4954                tc_init
 .data.rel.ro.local
                0x000e499c       0x30 /home/ubuntu/Desktop/RockboxRCC/bu800/apps/menus/sound_menu.o
                0x000e499c                sound_settings
                0x000e49a8                compressor_menu
                0x000e49b4                space80_menu
                0x000e49c0                crossfeed_menu
 .data.rel.ro.local
                0x000e49cc       0x2c /home/ubuntu/Desktop/RockboxRCC/bu800/apps/menus/time_menu.o
                0x000e49cc                time_menu
                0x000e49d8                time_set
 .data.rel.ro.local
                0x000e49f8        0x8 /home/ubuntu/Desktop/RockboxRCC/bu800/apps/misc.o
 .data.rel.ro.local
                0x000e4a00      0x4a4 /home/ubuntu/Desktop/RockboxRCC/bu800/apps/onplay.o
                0x000e4a5c                properties_item
                0x000e4a98                clipboard_paste_item
                0x000e4a74                create_dir_item
                0x000e4abc                rename_file_item
                0x000e4ab0                clipboard_cut_item
                0x000e4aa4                clipboard_copy_item
                0x000e4a50                add_to_faves_item
                0x000e4a80                delete_dir_item
                0x000e4a38                set_startdir_item
                0x000e4b10                set_catalogdir_item
                0x000e4a8c                delete_file_item
                0x000e4a68                list_viewers_item
                0x000e4a44                set_backdrop_item
                0x000e4b1c                view_playlist_item
                0x000e4b7c                i_shuf_pl_item
                0x000e4b70                i_last_shuf_pl_item
                0x000e4b34                q_last_shuf_pl_item
                0x000e4bdc                bookmark_create_menu_item
                0x000e4bd0                bookmark_load_menu_item
                0x000e4ac8                pitch_screen_item
                0x000e4ad4                browse_id3_item
                0x000e4ae0                view_cue_item
                0x000e4aec                rating_item
                0x000e4af8                cat_add_to_new
                0x000e4b04                cat_add_to_list
                0x000e4b28                replace_pl_item
                0x000e4b40                q_shuf_pl_item
                0x000e4b4c                q_last_pl_item
                0x000e4b58                q_first_pl_item
                0x000e4b64                q_pl_item
                0x000e4b88                i_last_pl_item
                0x000e4b94                i_first_pl_item
                0x000e4ba0                i_pl_item
                0x000e4bac                reshuffle_item
                0x000e4bb8                playlist_save_item
                0x000e4bc4                search_playlist_item
 .data.rel.ro.local
                0x000e4ea4        0xc /home/ubuntu/Desktop/RockboxRCC/bu800/apps/playlist_viewer.o
 .data.rel.ro.local
                0x000e4eb0       0xa8 /home/ubuntu/Desktop/RockboxRCC/bu800/apps/root_menu.o
                0x000e4ed0                do_shutdown_item
 .data.rel.ro.local
                0x000e4f58        0x8 /home/ubuntu/Desktop/RockboxRCC/bu800/apps/screens.o
 .data.rel.ro.local
                0x000e4f60       0x20 /home/ubuntu/Desktop/RockboxRCC/bu800/apps/shortcuts.o
 .data.rel.ro.local
                0x000e4f80        0x8 /home/ubuntu/Desktop/RockboxRCC/bu800/apps/talk.o
                0x000e4f80                file_thumbnail_ext
                0x000e4f84                dir_thumbnail_name
 .data.rel.ro.local
                0x000e4f88      0x1d8 /home/ubuntu/Desktop/RockboxRCC/bu800/apps/tagtree.o
 .data.rel.ro.local
                0x000e5160       0x44 /home/ubuntu/Desktop/RockboxRCC/bu800/apps/gui/option_select.o
 .data.rel.ro.local
                0x000e51a4       0xf8 /home/ubuntu/Desktop/RockboxRCC/bu800/apps/gui/skin_engine/skin_parser.o
 .data.rel.ro.local
                0x000e529c        0xc /home/ubuntu/Desktop/RockboxRCC/bu800/apps/recorder/albumart.o
 .data.rel.ro.local
                0x000e52a8       0x58 /home/ubuntu/Desktop/RockboxRCC/bu800/apps/tagcache.o
 .data.rel.ro.local
                0x000e5300       0x94 /home/ubuntu/Desktop/RockboxRCC/bu800/firmware/libfirmware.a(unicode.o)
 .data.rel.ro.local
                0x000e5394       0x40 /home/ubuntu/Desktop/RockboxRCC/bu800/firmware/libfirmware.a(lcd-16bit.o)
                0x000e5394                lcd_fastpixelfuncs_backdrop
                0x000e53b4                lcd_fastpixelfuncs_bgcolor
 .data.rel.ro.local
                0x000e53d4       0x80 /home/ubuntu/Desktop/RockboxRCC/bu800/firmware/libfirmware.a(sound.o)
 .data.rel.ro.local
                0x000e5454       0x7c /home/ubuntu/Desktop/RockboxRCC/bu800/firmware/libfirmware.a(sysfont.o)
                0x000e5454                sysfont
 .data.rel.ro.local
                0x000e54d0       0x8c /home/ubuntu/Desktop/RockboxRCC/bu800/lib/rbcodec/codecs/libspeex-voice.a(modes.o)
 .data.rel.ro.local
                0x000e555c      0x480 /home/ubuntu/Desktop/RockboxRCC/bu800/lib/librbcodec.a(id3tags.o)
 .data.rel.ro.local
                0x000e59dc       0x24 /home/ubuntu/Desktop/RockboxRCC/bu800/lib/librbcodec.a(mp3data.o)
 .data.rel.ro.local
                0x000e5a00        0x8 /home/ubuntu/Desktop/RockboxRCC/bu800/lib/librbcodec.a(channel_mode.o)
                0x000e5a00                CHANNEL_MODE_proc_db_entry
 .data.rel.ro.local
                0x000e5a08        0x8 /home/ubuntu/Desktop/RockboxRCC/bu800/lib/librbcodec.a(compressor.o)
                0x000e5a08                COMPRESSOR_proc_db_entry
 .data.rel.ro.local
                0x000e5a10        0x8 /home/ubuntu/Desktop/RockboxRCC/bu800/lib/librbcodec.a(crossfeed.o)
                0x000e5a10                CROSSFEED_proc_db_entry
 .data.rel.ro.local
                0x000e5a18        0x8 /home/ubuntu/Desktop/RockboxRCC/bu800/lib/librbcodec.a(emu10k_space80.o)
                0x000e5a18                SPACE80_proc_db_entry
 .data.rel.ro.local
                0x000e5a20        0x8 /home/ubuntu/Desktop/RockboxRCC/bu800/lib/librbcodec.a(surround.o)
                0x000e5a20                SURROUND_proc_db_entry
 .data.rel.ro.local
                0x000e5a28        0x8 /home/ubuntu/Desktop/RockboxRCC/bu800/lib/librbcodec.a(aatube.o)
                0x000e5a28                AATUBE_proc_db_entry
 .data.rel.ro.local
                0x000e5a30        0x8 /home/ubuntu/Desktop/RockboxRCC/bu800/lib/librbcodec.a(dsp_misc.o)
                0x000e5a30                MISC_HANDLER_proc_db_entry
 .data.rel.ro.local
                0x000e5a38       0x18 /home/ubuntu/Desktop/RockboxRCC/bu800/lib/librbcodec.a(dsp_sample_input.o)
 .data.rel.ro.local
                0x000e5a50        0x8 /home/ubuntu/Desktop/RockboxRCC/bu800/lib/librbcodec.a(eq.o)
                0x000e5a50                EQUALIZER_proc_db_entry
 .data.rel.ro.local
                0x000e5a58        0x8 /home/ubuntu/Desktop/RockboxRCC/bu800/lib/librbcodec.a(resample.o)
                0x000e5a58                RESAMPLE_proc_db_entry
 .data.rel.ro.local
                0x000e5a60        0x8 /home/ubuntu/Desktop/RockboxRCC/bu800/lib/librbcodec.a(pga.o)
                0x000e5a60                PGA_proc_db_entry
 .data.rel.ro.local
                0x000e5a68        0x8 /home/ubuntu/Desktop/RockboxRCC/bu800/lib/librbcodec.a(tdspeed.o)
                0x000e5a68                TIMESTRETCH_proc_db_entry
 .data.rel.ro.local
                0x000e5a70        0x8 /home/ubuntu/Desktop/RockboxRCC/bu800/lib/librbcodec.a(tone_controls.o)
                0x000e5a70                TONE_CONTROLS_proc_db_entry
 .data.rel.ro.local
                0x000e5a78       0x58 /home/ubuntu/Desktop/RockboxRCC/bu800/lib/librbcodec.a(wave.o)
 .data.rel.ro.local
                0x000e5ad0       0x10 /home/ubuntu/Desktop/RockboxRCC/bu800/lib/libunwarminder.a(backtrace.o)
                0x000e5ad0                cliCallbacks
 .data.rel.ro.local
                0x000e5ae0      0xb60 /home/ubuntu/Desktop/RockboxRCC/bu800/lib/libskin_parser.a(tag_table.o)
 .data.rel.ro.local
                0x000e6640       0x20 /home/ubuntu/Desktop/RockboxRCC/bu800/cpu-features.o

.fini_array     0x000e6660        0x8
 .fini_array    0x000e6660        0x4 /home/ubuntu/android-ndk-r9c/platforms/android-19/arch-arm/usr/lib/crtbegin_so.o
 .fini_array    0x000e6664        0x4 /home/ubuntu/android-ndk-r9c/platforms/android-19/arch-arm/usr/lib/crtend_so.o

.data.rel.ro    0x000e6668     0x3500
 .data.rel.ro   0x000e6668       0xc4 /home/ubuntu/Desktop/RockboxRCC/bu800/apps/menus/display_menu.o
 .data.rel.ro   0x000e672c       0xb0 /home/ubuntu/Desktop/RockboxRCC/bu800/apps/menus/theme_menu.o
 .data.rel.ro   0x000e67dc       0x48 /home/ubuntu/Desktop/RockboxRCC/bu800/apps/menus/eq_menu.o
 .data.rel.ro   0x000e6824       0x18 /home/ubuntu/Desktop/RockboxRCC/bu800/apps/menus/main_menu.o
 .data.rel.ro   0x000e683c      0x144 /home/ubuntu/Desktop/RockboxRCC/bu800/apps/menus/playback_menu.o
 .data.rel.ro   0x000e6980       0x4c /home/ubuntu/Desktop/RockboxRCC/bu800/apps/menus/playlist_menu.o
 .data.rel.ro   0x000e69cc      0x1c8 /home/ubuntu/Desktop/RockboxRCC/bu800/apps/menus/settings_menu.o
 .data.rel.ro   0x000e6b94      0x15c /home/ubuntu/Desktop/RockboxRCC/bu800/apps/menus/sound_menu.o
 .data.rel.ro   0x000e6cf0        0xc /home/ubuntu/Desktop/RockboxRCC/bu800/apps/menus/time_menu.o
 .data.rel.ro   0x000e6cfc       0x28 /home/ubuntu/Desktop/RockboxRCC/bu800/apps/misc.o
                0x000e6d20                kbyte_units
 .data.rel.ro   0x000e6d24       0x20 /home/ubuntu/Desktop/RockboxRCC/bu800/apps/onplay.o
 .data.rel.ro   0x000e6d44      0x564 /home/ubuntu/Desktop/RockboxRCC/bu800/apps/plugin.o
 .data.rel.ro   0x000e72a8       0xa8 /home/ubuntu/Desktop/RockboxRCC/bu800/apps/root_menu.o
 .data.rel.ro   0x000e7350     0x1ef4 /home/ubuntu/Desktop/RockboxRCC/bu800/apps/settings_list.o
                0x000e7350                settings
 .data.rel.ro   0x000e9244       0x20 /home/ubuntu/Desktop/RockboxRCC/bu800/apps/gui/skin_engine/skin_engine.o
 .data.rel.ro   0x000e9264       0x3c /home/ubuntu/Desktop/RockboxRCC/bu800/apps/recorder/jpeg_load.o
 .data.rel.ro   0x000e92a0       0x18 /home/ubuntu/Desktop/RockboxRCC/bu800/apps/bitmaps/mono/default_icons.o
                0x000e92a0                bm_default_icons
 .data.rel.ro   0x000e92b8       0x18 /home/ubuntu/Desktop/RockboxRCC/bu800/apps/bitmaps/native/rockboxlogo.640x198x16.o
                0x000e92b8                bm_rockboxlogo
 .data.rel.ro   0x000e92d0       0x18 /home/ubuntu/Desktop/RockboxRCC/bu800/apps/bitmaps/native/usblogo.176x48x16.o
                0x000e92d0                bm_usblogo
 .data.rel.ro   0x000e92e8       0x48 /home/ubuntu/Desktop/RockboxRCC/bu800/firmware/libfirmware.a(sound.o)
 .data.rel.ro   0x000e9330      0x1d0 /home/ubuntu/Desktop/RockboxRCC/bu800/lib/rbcodec/codecs/libspeex-voice.a(modes_wb.o)
                0x000e9354                speex_mode_list
                0x000e9330                speex_wb_mode
 .data.rel.ro   0x000e9500      0x28c /home/ubuntu/Desktop/RockboxRCC/bu800/lib/rbcodec/codecs/libspeex-voice.a(modes.o)
                0x000e9500                speex_nb_mode
 .data.rel.ro   0x000e978c      0x380 /home/ubuntu/Desktop/RockboxRCC/bu800/lib/librbcodec.a(metadata.o)
                0x000e978c                audio_formats
 .data.rel.ro   0x000e9b0c       0x1c /home/ubuntu/Desktop/RockboxRCC/bu800/lib/librbcodec.a(channel_mode.o)
 .data.rel.ro   0x000e9b28       0x30 /home/ubuntu/Desktop/RockboxRCC/bu800/lib/librbcodec.a(dsp_core.o)
 .data.rel.ro   0x000e9b58       0x10 /home/ubuntu/Desktop/RockboxRCC/bu800/lib/librbcodec.a(dsp_sample_output.o)

.init_array     0x000e9b68        0x8
 .init_array    0x000e9b68        0x4 /home/ubuntu/Desktop/RockboxRCC/bu800/firmware/libfirmware.a(cpuinfo-linux.o)
 .init_array    0x000e9b6c        0x4 /home/ubuntu/android-ndk-r9c/platforms/android-19/arch-arm/usr/lib/crtend_so.o

.dynamic        0x000e9b70       0xf8
 ** dynamic     0x000e9b70       0xf8

.got            0x000e9c68      0x398
 ** GOT         0x000e9c68      0x238
 ** GOT PLT     0x000e9ea0      0x160

.data           0x000ea000     0x2638
 .data          0x000ea000        0x4 /home/ubuntu/android-ndk-r9c/platforms/android-19/arch-arm/usr/lib/crtbegin_so.o
                0x000ea000                __dso_handle
 .data          0x000ea004        0x4 /home/ubuntu/Desktop/RockboxRCC/bu800/apps/action.o
 .data          0x000ea008        0x0 /home/ubuntu/Desktop/RockboxRCC/bu800/apps/abrepeat.o
 .data          0x000ea008        0x8 /home/ubuntu/Desktop/RockboxRCC/bu800/apps/bookmark.o
 .data          0x000ea010        0x4 /home/ubuntu/Desktop/RockboxRCC/bu800/apps/debug_menu.o
 .data          0x000ea014        0x8 /home/ubuntu/Desktop/RockboxRCC/bu800/apps/filetypes.o
 .data.rel.local
                0x000ea01c        0xc /home/ubuntu/Desktop/RockboxRCC/bu800/apps/filetypes.o
 .data          0x000ea028        0x0 /home/ubuntu/Desktop/RockboxRCC/bu800/apps/language.o
 .data          0x000ea028        0x0 /home/ubuntu/Desktop/RockboxRCC/bu800/apps/main.o
 .data          0x000ea028       0x1c /home/ubuntu/Desktop/RockboxRCC/bu800/apps/menu.o
 .data          0x000ea044        0x0 /home/ubuntu/Desktop/RockboxRCC/bu800/apps/menus/menu_common.o
 .data          0x000ea044        0x0 /home/ubuntu/Desktop/RockboxRCC/bu800/apps/menus/display_menu.o
 .data.rel.local
                0x000ea044       0x24 /home/ubuntu/Desktop/RockboxRCC/bu800/apps/menus/display_menu.o
 .data.rel      0x000ea068       0x38 /home/ubuntu/Desktop/RockboxRCC/bu800/apps/menus/display_menu.o
 .data          0x000ea0a0        0x0 /home/ubuntu/Desktop/RockboxRCC/bu800/apps/menus/theme_menu.o
 .data.rel.local
                0x000ea0a0       0x34 /home/ubuntu/Desktop/RockboxRCC/bu800/apps/menus/theme_menu.o
 .data.rel      0x000ea0d4       0x48 /home/ubuntu/Desktop/RockboxRCC/bu800/apps/menus/theme_menu.o
 .data          0x000ea11c        0x0 /home/ubuntu/Desktop/RockboxRCC/bu800/apps/menus/plugin_menu.o
 .data.rel      0x000ea11c        0xc /home/ubuntu/Desktop/RockboxRCC/bu800/apps/menus/plugin_menu.o
 .data          0x000ea128        0x0 /home/ubuntu/Desktop/RockboxRCC/bu800/apps/menus/eq_menu.o
 .data.rel.local
                0x000ea128        0x8 /home/ubuntu/Desktop/RockboxRCC/bu800/apps/menus/eq_menu.o
 .data.rel      0x000ea130       0x20 /home/ubuntu/Desktop/RockboxRCC/bu800/apps/menus/eq_menu.o
 .data          0x000ea150        0x0 /home/ubuntu/Desktop/RockboxRCC/bu800/apps/buffering.o
 .data          0x000ea150        0x0 /home/ubuntu/Desktop/RockboxRCC/bu800/apps/voice_thread.o
 .data.rel.local
                0x000ea150        0xc /home/ubuntu/Desktop/RockboxRCC/bu800/apps/voice_thread.o
 .data          0x000ea15c        0x0 /home/ubuntu/Desktop/RockboxRCC/bu800/apps/rbcodec_helpers.o
 .data.rel.local
                0x000ea15c        0xc /home/ubuntu/Desktop/RockboxRCC/bu800/apps/rbcodec_helpers.o
 .data          0x000ea168       0x14 /home/ubuntu/Desktop/RockboxRCC/bu800/apps/menus/main_menu.o
 .data.rel      0x000ea17c       0x38 /home/ubuntu/Desktop/RockboxRCC/bu800/apps/menus/main_menu.o
 .data          0x000ea1b4        0x0 /home/ubuntu/Desktop/RockboxRCC/bu800/apps/menus/playback_menu.o
 .data.rel.local
                0x000ea1b4       0x34 /home/ubuntu/Desktop/RockboxRCC/bu800/apps/menus/playback_menu.o
 .data.rel      0x000ea1e8       0x48 /home/ubuntu/Desktop/RockboxRCC/bu800/apps/menus/playback_menu.o
 .data          0x000ea230        0x0 /home/ubuntu/Desktop/RockboxRCC/bu800/apps/menus/playlist_menu.o
 .data.rel.local
                0x000ea230        0xc /home/ubuntu/Desktop/RockboxRCC/bu800/apps/menus/playlist_menu.o
 .data.rel      0x000ea23c       0x1c /home/ubuntu/Desktop/RockboxRCC/bu800/apps/menus/playlist_menu.o
 .data          0x000ea258       0x10 /home/ubuntu/Desktop/RockboxRCC/bu800/apps/menus/settings_menu.o
 .data.rel.local
                0x000ea268       0x58 /home/ubuntu/Desktop/RockboxRCC/bu800/apps/menus/settings_menu.o
 .data.rel      0x000ea2c0       0x90 /home/ubuntu/Desktop/RockboxRCC/bu800/apps/menus/settings_menu.o
 .data          0x000ea350        0x0 /home/ubuntu/Desktop/RockboxRCC/bu800/apps/menus/sound_menu.o
 .data.rel.local
                0x000ea350       0x40 /home/ubuntu/Desktop/RockboxRCC/bu800/apps/menus/sound_menu.o
 .data.rel      0x000ea390       0x44 /home/ubuntu/Desktop/RockboxRCC/bu800/apps/menus/sound_menu.o
 .data          0x000ea3d4        0x0 /home/ubuntu/Desktop/RockboxRCC/bu800/apps/menus/time_menu.o
 .data.rel      0x000ea3d4        0x8 /home/ubuntu/Desktop/RockboxRCC/bu800/apps/menus/time_menu.o
 .data          0x000ea3dc        0x8 /home/ubuntu/Desktop/RockboxRCC/bu800/apps/misc.o
 .data          0x000ea3e4        0x4 /home/ubuntu/Desktop/RockboxRCC/bu800/apps/onplay.o
 .data.rel      0x000ea3e8      0x18c /home/ubuntu/Desktop/RockboxRCC/bu800/apps/onplay.o
 .data          0x000ea574        0x0 /home/ubuntu/Desktop/RockboxRCC/bu800/apps/playlist.o
 .data.rel.local
                0x000ea574        0xc /home/ubuntu/Desktop/RockboxRCC/bu800/apps/playlist.o
 .data          0x000ea580        0x0 /home/ubuntu/Desktop/RockboxRCC/bu800/apps/playlist_catalog.o
 .data          0x000ea580       0x1c /home/ubuntu/Desktop/RockboxRCC/bu800/apps/playlist_viewer.o
 .data          0x000ea59c        0x0 /home/ubuntu/Desktop/RockboxRCC/bu800/apps/plugin.o
 .data          0x000ea5a0      0x220 /home/ubuntu/Desktop/RockboxRCC/bu800/apps/root_menu.o
 .data.rel.local
                0x000ea7c0        0xc /home/ubuntu/Desktop/RockboxRCC/bu800/apps/root_menu.o
 .data.rel      0x000ea7cc       0x50 /home/ubuntu/Desktop/RockboxRCC/bu800/apps/root_menu.o
 .data          0x000ea81c       0x10 /home/ubuntu/Desktop/RockboxRCC/bu800/apps/screens.o
 .data          0x000ea82c        0x0 /home/ubuntu/Desktop/RockboxRCC/bu800/apps/settings.o
 .data          0x000ea82c      0x8f4 /home/ubuntu/Desktop/RockboxRCC/bu800/apps/settings_list.o
                0x000ea82c                eq_defaults
 .data.rel.local
                0x000eb120      0xcdc /home/ubuntu/Desktop/RockboxRCC/bu800/apps/settings_list.o
 .data.rel      0x000ebdfc      0x4d8 /home/ubuntu/Desktop/RockboxRCC/bu800/apps/settings_list.o
 .data          0x000ec2d4        0x4 /home/ubuntu/Desktop/RockboxRCC/bu800/apps/shortcuts.o
 .data          0x000ec2d8        0x0 /home/ubuntu/Desktop/RockboxRCC/bu800/apps/status.o
 .data          0x000ec2d8        0x0 /home/ubuntu/Desktop/RockboxRCC/bu800/apps/cuesheet.o
 .data          0x000ec2d8        0x0 /home/ubuntu/Desktop/RockboxRCC/bu800/apps/talk.o
 .data.rel.local
                0x000ec2d8        0xc /home/ubuntu/Desktop/RockboxRCC/bu800/apps/talk.o
 .data          0x000ec2e4        0x4 /home/ubuntu/Desktop/RockboxRCC/bu800/apps/tree.o
 .data.rel.local
                0x000ec2e8        0xc /home/ubuntu/Desktop/RockboxRCC/bu800/apps/tree.o
 .data          0x000ec2f4        0x0 /home/ubuntu/Desktop/RockboxRCC/bu800/apps/tagtree.o
 .data.rel.local
                0x000ec2f4        0xc /home/ubuntu/Desktop/RockboxRCC/bu800/apps/tagtree.o
 .data          0x000ec300        0x0 /home/ubuntu/Desktop/RockboxRCC/bu800/apps/filetree.o
 .data          0x000ec300        0x0 /home/ubuntu/Desktop/RockboxRCC/bu800/apps/scrobbler.o
 .data          0x000ec300        0x0 /home/ubuntu/Desktop/RockboxRCC/bu800/apps/screen_access.o
 .data.rel      0x000ec300      0x104 /home/ubuntu/Desktop/RockboxRCC/bu800/apps/screen_access.o
                0x000ec300                screens
 .data          0x000ec404        0x0 /home/ubuntu/Desktop/RockboxRCC/bu800/apps/gui/icon.o
 .data.rel.local
                0x000ec404        0xc /home/ubuntu/Desktop/RockboxRCC/bu800/apps/gui/icon.o
 .data          0x000ec410        0x8 /home/ubuntu/Desktop/RockboxRCC/bu800/apps/gui/list.o
 .data          0x000ec418        0x0 /home/ubuntu/Desktop/RockboxRCC/bu800/apps/gui/line.o
 .data          0x000ec418        0x1 /home/ubuntu/Desktop/RockboxRCC/bu800/apps/gui/bitmap/list.o
 .data          0x000ec419        0x0 /home/ubuntu/Desktop/RockboxRCC/bu800/apps/gui/bitmap/list-skinned.o
 .data          0x000ec419        0x0 /home/ubuntu/Desktop/RockboxRCC/bu800/apps/gui/option_select.o
 .data          0x000ec419        0x0 /home/ubuntu/Desktop/RockboxRCC/bu800/apps/gui/pitchscreen.o
 .data          0x000ec419        0x0 /home/ubuntu/Desktop/RockboxRCC/bu800/apps/gui/quickscreen.o
 .data          0x000ec419        0x0 /home/ubuntu/Desktop/RockboxRCC/bu800/apps/gui/folder_select.o
 .data.rel.local
                0x000ec41c       0x14 /home/ubuntu/Desktop/RockboxRCC/bu800/apps/gui/folder_select.o
 .data          0x000ec430        0x0 /home/ubuntu/Desktop/RockboxRCC/bu800/apps/gui/wps.o
 .data          0x000ec430        0x4 /home/ubuntu/Desktop/RockboxRCC/bu800/apps/gui/scrollbar.o
 .data          0x000ec434        0x0 /home/ubuntu/Desktop/RockboxRCC/bu800/apps/gui/splash.o
 .data          0x000ec434        0x0 /home/ubuntu/Desktop/RockboxRCC/bu800/apps/gui/statusbar.o
 .data          0x000ec434        0xc /home/ubuntu/Desktop/RockboxRCC/bu800/apps/gui/statusbar-skinned.o
 .data          0x000ec440        0x0 /home/ubuntu/Desktop/RockboxRCC/bu800/apps/hosted/android/yesno.o
 .data          0x000ec440        0x0 /home/ubuntu/Desktop/RockboxRCC/bu800/apps/hosted/android/notification.o
 .data          0x000ec440        0x0 /home/ubuntu/Desktop/RockboxRCC/bu800/apps/gui/viewport.o
 .data          0x000ec440        0x1 /home/ubuntu/Desktop/RockboxRCC/bu800/apps/gui/skin_engine/skin_backdrops.o
 .data.rel.local
                0x000ec444        0xc /home/ubuntu/Desktop/RockboxRCC/bu800/apps/gui/skin_engine/skin_backdrops.o
 .data          0x000ec450        0x0 /home/ubuntu/Desktop/RockboxRCC/bu800/apps/gui/skin_engine/skin_display.o
 .data          0x000ec450        0x1 /home/ubuntu/Desktop/RockboxRCC/bu800/apps/gui/skin_engine/skin_engine.o
 .data          0x000ec454        0x4 /home/ubuntu/Desktop/RockboxRCC/bu800/apps/gui/skin_engine/skin_parser.o
 .data.rel.local
                0x000ec458        0xc /home/ubuntu/Desktop/RockboxRCC/bu800/apps/gui/skin_engine/skin_parser.o
 .data          0x000ec464        0x0 /home/ubuntu/Desktop/RockboxRCC/bu800/apps/gui/skin_engine/skin_render.o
 .data          0x000ec464        0x0 /home/ubuntu/Desktop/RockboxRCC/bu800/apps/gui/skin_engine/skin_tokens.o
 .data          0x000ec464        0x0 /home/ubuntu/Desktop/RockboxRCC/bu800/apps/gui/skin_engine/skin_touchsupport.o
 .data          0x000ec464        0x0 /home/ubuntu/Desktop/RockboxRCC/bu800/apps/gui/backdrop.o
 .data          0x000ec464        0x0 /home/ubuntu/Desktop/RockboxRCC/bu800/apps/recorder/bmp.o
 .data          0x000ec464        0x0 /home/ubuntu/Desktop/RockboxRCC/bu800/apps/recorder/icons.o
 .data          0x000ec464        0x0 /home/ubuntu/Desktop/RockboxRCC/bu800/apps/hosted/android/keyboard.o
 .data          0x000ec464       0x18 /home/ubuntu/Desktop/RockboxRCC/bu800/apps/recorder/peakmeter.o
 .data          0x000ec47c        0x0 /home/ubuntu/Desktop/RockboxRCC/bu800/apps/recorder/resize.o
 .data          0x000ec47c        0x0 /home/ubuntu/Desktop/RockboxRCC/bu800/apps/recorder/jpeg_load.o
 .data          0x000ec47c        0x0 /home/ubuntu/Desktop/RockboxRCC/bu800/apps/recorder/jpeg_idct_arm.o
 .data          0x000ec47c        0x0 /home/ubuntu/Desktop/RockboxRCC/bu800/apps/recorder/albumart.o
 .data          0x000ec47c        0x0 /home/ubuntu/Desktop/RockboxRCC/bu800/apps/gui/color_picker.o
 .data          0x000ec47c        0x0 /home/ubuntu/Desktop/RockboxRCC/bu800/apps/audio_thread.o
 .data          0x000ec47c        0xc /home/ubuntu/Desktop/RockboxRCC/bu800/apps/pcmbuf.o
 .data          0x000ec488        0x0 /home/ubuntu/Desktop/RockboxRCC/bu800/apps/codec_thread.o
 .data          0x000ec488        0x8 /home/ubuntu/Desktop/RockboxRCC/bu800/apps/playback.o
 .data.rel.local
                0x000ec490        0xc /home/ubuntu/Desktop/RockboxRCC/bu800/apps/playback.o
 .data          0x000ec49c        0x0 /home/ubuntu/Desktop/RockboxRCC/bu800/apps/codecs.o
 .data.rel      0x000ec49c       0x80 /home/ubuntu/Desktop/RockboxRCC/bu800/apps/codecs.o
                0x000ec49c                ci
 .data          0x000ec51c        0x0 /home/ubuntu/Desktop/RockboxRCC/bu800/apps/beep.o
 .data          0x000ec51c        0x8 /home/ubuntu/Desktop/RockboxRCC/bu800/apps/tagcache.o
 .data          0x000ec524        0x0 /home/ubuntu/Desktop/RockboxRCC/bu800/apps/keymaps/keymap-touchscreen.o
 .data          0x000ec524        0x0 /home/ubuntu/Desktop/RockboxRCC/bu800/apps/keymaps/keymap-android.o
 .data          0x000ec524        0x0 /home/ubuntu/Desktop/RockboxRCC/bu800/apps/bitmaps/mono/default_icons.o
 .data          0x000ec524        0x0 /home/ubuntu/Desktop/RockboxRCC/bu800/apps/bitmaps/native/rockboxlogo.640x198x16.o
 .data          0x000ec524        0x0 /home/ubuntu/Desktop/RockboxRCC/bu800/apps/bitmaps/native/usblogo.176x48x16.o
 .data          0x000ec524        0x0 /home/ubuntu/Desktop/RockboxRCC/bu800/lang/lang_core.o
 .data          0x000ec524        0x0 /home/ubuntu/Desktop/RockboxRCC/bu800/firmware/libfirmware.a(ata_idle_notify.o)
 .data          0x000ec524        0x0 /home/ubuntu/Desktop/RockboxRCC/bu800/firmware/libfirmware.a(events.o)
 .data          0x000ec524        0x0 /home/ubuntu/Desktop/RockboxRCC/bu800/firmware/libfirmware.a(backlight.o)
 .data          0x000ec524        0x0 /home/ubuntu/Desktop/RockboxRCC/bu800/firmware/libfirmware.a(buflib.o)
 .data          0x000ec524        0x0 /home/ubuntu/Desktop/RockboxRCC/bu800/firmware/libfirmware.a(core_alloc.o)
 .data.rel      0x000ec524        0x4 /home/ubuntu/Desktop/RockboxRCC/bu800/firmware/libfirmware.a(core_alloc.o)
                0x000ec524                audiobufend
 .data          0x000ec528        0x0 /home/ubuntu/Desktop/RockboxRCC/bu800/firmware/libfirmware.a(general.o)
 .data          0x000ec528        0x8 /home/ubuntu/Desktop/RockboxRCC/bu800/firmware/libfirmware.a(powermgmt.o)
                0x000ec528                battery_percent
                0x000ec52c                last_sent_battery_level
 .data          0x000ec530        0x8 /home/ubuntu/Desktop/RockboxRCC/bu800/firmware/libfirmware.a(cpuinfo-linux.o)
 .data          0x000ec538        0x0 /home/ubuntu/Desktop/RockboxRCC/bu800/firmware/libfirmware.a(usb.o)
 .data          0x000ec538        0x0 /home/ubuntu/Desktop/RockboxRCC/bu800/firmware/libfirmware.a(panic.o)
 .data          0x000ec538        0x0 /home/ubuntu/Desktop/RockboxRCC/bu800/firmware/libfirmware.a(version.o)
 .data          0x000ec538        0x0 /home/ubuntu/Desktop/RockboxRCC/bu800/firmware/libfirmware.a(crc32.o)
 .data          0x000ec538        0x0 /home/ubuntu/Desktop/RockboxRCC/bu800/firmware/libfirmware.a(filefuncs.o)
 .data          0x000ec538        0x0 /home/ubuntu/Desktop/RockboxRCC/bu800/firmware/libfirmware.a(format.o)
 .data          0x000ec538        0x0 /home/ubuntu/Desktop/RockboxRCC/bu800/firmware/libfirmware.a(rbpaths.o)
 .data          0x000ec538        0x0 /home/ubuntu/Desktop/RockboxRCC/bu800/firmware/libfirmware.a(strcasecmp.o)
 .data          0x000ec538        0x0 /home/ubuntu/Desktop/RockboxRCC/bu800/firmware/libfirmware.a(strcasestr.o)
 .data          0x000ec538        0x0 /home/ubuntu/Desktop/RockboxRCC/bu800/firmware/libfirmware.a(strnatcmp.o)
 .data          0x000ec538        0x0 /home/ubuntu/Desktop/RockboxRCC/bu800/firmware/libfirmware.a(strlcat.o)
 .data          0x000ec538        0x0 /home/ubuntu/Desktop/RockboxRCC/bu800/firmware/libfirmware.a(strlcpy.o)
 .data          0x000ec538        0x0 /home/ubuntu/Desktop/RockboxRCC/bu800/firmware/libfirmware.a(structec.o)
 .data          0x000ec538        0x0 /home/ubuntu/Desktop/RockboxRCC/bu800/firmware/libfirmware.a(timefuncs.o)
 .data          0x000ec538        0x0 /home/ubuntu/Desktop/RockboxRCC/bu800/firmware/libfirmware.a(unicode.o)
 .data          0x000ec538        0x0 /home/ubuntu/Desktop/RockboxRCC/bu800/firmware/libfirmware.a(scroll_engine.o)
 .data.rel.local
                0x000ec538       0x1c /home/ubuntu/Desktop/RockboxRCC/bu800/firmware/libfirmware.a(scroll_engine.o)
                0x000ec538                lcd_scroll_info
 .data          0x000ec554        0x0 /home/ubuntu/Desktop/RockboxRCC/bu800/firmware/libfirmware.a(bidi.o)
 .data          0x000ec554        0x0 /home/ubuntu/Desktop/RockboxRCC/bu800/firmware/libfirmware.a(font.o)
 .data.rel.local
                0x000ec554        0xc /home/ubuntu/Desktop/RockboxRCC/bu800/firmware/libfirmware.a(font.o)
 .data          0x000ec560        0x0 /home/ubuntu/Desktop/RockboxRCC/bu800/firmware/libfirmware.a(lru.o)
 .data          0x000ec560        0x0 /home/ubuntu/Desktop/RockboxRCC/bu800/firmware/libfirmware.a(screendump.o)
 .data          0x000ec560       0x24 /home/ubuntu/Desktop/RockboxRCC/bu800/firmware/libfirmware.a(lcd-16bit.o)
 .data.rel.local
                0x000ec584        0x4 /home/ubuntu/Desktop/RockboxRCC/bu800/firmware/libfirmware.a(lcd-16bit.o)
 .data.rel      0x000ec588        0x8 /home/ubuntu/Desktop/RockboxRCC/bu800/firmware/libfirmware.a(lcd-16bit.o)
                0x000ec58c                lcd_framebuffer
                0x000ec588                lcd_fastpixelfuncs
 .data          0x000ec590        0x0 /home/ubuntu/Desktop/RockboxRCC/bu800/firmware/libfirmware.a(diacritic.o)
 .data          0x000ec590        0x0 /home/ubuntu/Desktop/RockboxRCC/bu800/firmware/libfirmware.a(led.o)
 .data          0x000ec590        0x4 /home/ubuntu/Desktop/RockboxRCC/bu800/firmware/libfirmware.a(button.o)
 .data          0x000ec594       0x20 /home/ubuntu/Desktop/RockboxRCC/bu800/firmware/libfirmware.a(touchscreen.o)
                0x000ec598                calibration_parameters
 .data          0x000ec5b4        0x0 /home/ubuntu/Desktop/RockboxRCC/bu800/firmware/libfirmware.a(sound.o)
 .data          0x000ec5b4        0x0 /home/ubuntu/Desktop/RockboxRCC/bu800/firmware/libfirmware.a(pcm_sampr.o)
 .data          0x000ec5b4        0x4 /home/ubuntu/Desktop/RockboxRCC/bu800/firmware/libfirmware.a(pcm.o)
                0x000ec5b4                pcm_sampr
 .data          0x000ec5b8        0x4 /home/ubuntu/Desktop/RockboxRCC/bu800/firmware/libfirmware.a(pcm_mixer.o)
 .data          0x000ec5bc        0x0 /home/ubuntu/Desktop/RockboxRCC/bu800/firmware/libfirmware.a(audiohw-swcodec.o)
 .data          0x000ec5bc        0x4 /home/ubuntu/Desktop/RockboxRCC/bu800/firmware/libfirmware.a(kernel-unix.o)
 .data          0x000ec5c0        0x0 /home/ubuntu/Desktop/RockboxRCC/bu800/firmware/libfirmware.a(filesystem-unix.o)
 .data          0x000ec5c0        0x0 /home/ubuntu/Desktop/RockboxRCC/bu800/firmware/libfirmware.a(lc-unix.o)
 .data          0x000ec5c0        0x0 /home/ubuntu/Desktop/RockboxRCC/bu800/firmware/libfirmware.a(lcd-android.o)
 .data          0x000ec5c0        0x0 /home/ubuntu/Desktop/RockboxRCC/bu800/firmware/libfirmware.a(button-android.o)
 .data          0x000ec5c0        0x0 /home/ubuntu/Desktop/RockboxRCC/bu800/firmware/libfirmware.a(pcm-android.o)
 .data          0x000ec5c0        0x0 /home/ubuntu/Desktop/RockboxRCC/bu800/firmware/libfirmware.a(powermgmt-android.o)
 .data          0x000ec5c0        0x0 /home/ubuntu/Desktop/RockboxRCC/bu800/firmware/libfirmware.a(system-android.o)
 .data          0x000ec5c0        0x0 /home/ubuntu/Desktop/RockboxRCC/bu800/firmware/libfirmware.a(telephony-android.o)
 .data          0x000ec5c0        0x0 /home/ubuntu/Desktop/RockboxRCC/bu800/firmware/libfirmware.a(button-application.o)
 .data          0x000ec5c0        0x0 /home/ubuntu/Desktop/RockboxRCC/bu800/firmware/libfirmware.a(android.o)
 .data          0x000ec5c0        0x0 /home/ubuntu/Desktop/RockboxRCC/bu800/firmware/libfirmware.a(mutex.o)
 .data          0x000ec5c0        0x0 /home/ubuntu/Desktop/RockboxRCC/bu800/firmware/libfirmware.a(queue.o)
 .data          0x000ec5c0        0x0 /home/ubuntu/Desktop/RockboxRCC/bu800/firmware/libfirmware.a(semaphore.o)
 .data          0x000ec5c0        0x0 /home/ubuntu/Desktop/RockboxRCC/bu800/firmware/libfirmware.a(thread.o)
 .data          0x000ec5c0        0x0 /home/ubuntu/Desktop/RockboxRCC/bu800/firmware/libfirmware.a(tick.o)
 .data          0x000ec5c0        0x0 /home/ubuntu/Desktop/RockboxRCC/bu800/firmware/libfirmware.a(timeout.o)
 .data          0x000ec5c0        0x0 /home/ubuntu/Desktop/RockboxRCC/bu800/firmware/libfirmware.a(sysfont.o)
 .data          0x000ec5c0        0x0 /home/ubuntu/Desktop/RockboxRCC/bu800/firmware/libfirmware.a(ffs.o)
 .data          0x000ec5c0        0x0 /home/ubuntu/Desktop/RockboxRCC/bu800/firmware/libfirmware.a(memset16.o)
 .data          0x000ec5c0        0x0 /home/ubuntu/Desktop/RockboxRCC/bu800/firmware/libfirmware.a(rtc.o)
 .data          0x000ec5c0        0x0 /home/ubuntu/Desktop/RockboxRCC/bu800/firmware/libfirmware.a(arabjoin.o)
 .data          0x000ec5c0        0x0 /home/ubuntu/Desktop/RockboxRCC/bu800/firmware/libfirmware.a(font_cache.o)
 .data          0x000ec5c0        0x0 /home/ubuntu/Desktop/RockboxRCC/bu800/lib/rbcodec/codecs/libspeex-voice.a(bits.o)
 .data          0x000ec5c0        0x0 /home/ubuntu/Desktop/RockboxRCC/bu800/lib/rbcodec/codecs/libspeex-voice.a(modes_wb.o)
 .data          0x000ec5c0        0x0 /home/ubuntu/Desktop/RockboxRCC/bu800/lib/rbcodec/codecs/libspeex-voice.a(quant_lsp.o)
 .data          0x000ec5c0        0x0 /home/ubuntu/Desktop/RockboxRCC/bu800/lib/rbcodec/codecs/libspeex-voice.a(sb_celp.o)
 .data          0x000ec5c0        0x0 /home/ubuntu/Desktop/RockboxRCC/bu800/lib/rbcodec/codecs/libspeex-voice.a(speex.o)
 .data          0x000ec5c0        0x0 /home/ubuntu/Desktop/RockboxRCC/bu800/lib/rbcodec/codecs/libspeex-voice.a(filters_arm4.o)
 .data          0x000ec5c0        0x0 /home/ubuntu/Desktop/RockboxRCC/bu800/lib/rbcodec/codecs/libspeex-voice.a(cb_search.o)
 .data          0x000ec5c0        0x0 /home/ubuntu/Desktop/RockboxRCC/bu800/lib/rbcodec/codecs/libspeex-voice.a(filters.o)
 .data          0x000ec5c0        0x0 /home/ubuntu/Desktop/RockboxRCC/bu800/lib/rbcodec/codecs/libspeex-voice.a(hexc_10_32_table.o)
 .data          0x000ec5c0        0x0 /home/ubuntu/Desktop/RockboxRCC/bu800/lib/rbcodec/codecs/libspeex-voice.a(hexc_table.o)
 .data          0x000ec5c0        0x0 /home/ubuntu/Desktop/RockboxRCC/bu800/lib/rbcodec/codecs/libspeex-voice.a(high_lsp_tables.o)
 .data          0x000ec5c0        0x0 /home/ubuntu/Desktop/RockboxRCC/bu800/lib/rbcodec/codecs/libspeex-voice.a(lsp.o)
 .data          0x000ec5c0        0x0 /home/ubuntu/Desktop/RockboxRCC/bu800/lib/rbcodec/codecs/libspeex-voice.a(lsp_tables_nb.o)
 .data          0x000ec5c0        0x0 /home/ubuntu/Desktop/RockboxRCC/bu800/lib/rbcodec/codecs/libspeex-voice.a(ltp.o)
 .data          0x000ec5c0        0x0 /home/ubuntu/Desktop/RockboxRCC/bu800/lib/rbcodec/codecs/libspeex-voice.a(modes.o)
 .data          0x000ec5c0        0x0 /home/ubuntu/Desktop/RockboxRCC/bu800/lib/rbcodec/codecs/libspeex-voice.a(nb_celp.o)
 .data          0x000ec5c0        0x0 /home/ubuntu/Desktop/RockboxRCC/bu800/lib/rbcodec/codecs/libspeex-voice.a(speex_callbacks.o)
 .data          0x000ec5c0        0x0 /home/ubuntu/Desktop/RockboxRCC/bu800/lib/rbcodec/codecs/libspeex-voice.a(exc_10_16_table.o)
 .data          0x000ec5c0        0x0 /home/ubuntu/Desktop/RockboxRCC/bu800/lib/rbcodec/codecs/libspeex-voice.a(exc_10_32_table.o)
 .data          0x000ec5c0        0x0 /home/ubuntu/Desktop/RockboxRCC/bu800/lib/rbcodec/codecs/libspeex-voice.a(exc_20_32_table.o)
 .data          0x000ec5c0        0x0 /home/ubuntu/Desktop/RockboxRCC/bu800/lib/rbcodec/codecs/libspeex-voice.a(exc_5_256_table.o)
 .data          0x000ec5c0        0x0 /home/ubuntu/Desktop/RockboxRCC/bu800/lib/rbcodec/codecs/libspeex-voice.a(exc_5_64_table.o)
 .data          0x000ec5c0        0x0 /home/ubuntu/Desktop/RockboxRCC/bu800/lib/rbcodec/codecs/libspeex-voice.a(exc_8_128_table.o)
 .data          0x000ec5c0        0x0 /home/ubuntu/Desktop/RockboxRCC/bu800/lib/rbcodec/codecs/libspeex-voice.a(gain_table.o)
 .data          0x000ec5c0        0x0 /home/ubuntu/Desktop/RockboxRCC/bu800/lib/rbcodec/codecs/libspeex-voice.a(gain_table_lbr.o)
 .data          0x000ec5c0        0x0 /home/ubuntu/Desktop/RockboxRCC/bu800/lib/librbcodec.a(metadata.o)
 .data          0x000ec5c0        0x0 /home/ubuntu/Desktop/RockboxRCC/bu800/lib/librbcodec.a(id3tags.o)
 .data          0x000ec5c0        0x0 /home/ubuntu/Desktop/RockboxRCC/bu800/lib/librbcodec.a(mp3.o)
 .data          0x000ec5c0        0x0 /home/ubuntu/Desktop/RockboxRCC/bu800/lib/librbcodec.a(mp3data.o)
 .data          0x000ec5c0        0x0 /home/ubuntu/Desktop/RockboxRCC/bu800/lib/librbcodec.a(channel_mode.o)
 .data          0x000ec5c0        0x0 /home/ubuntu/Desktop/RockboxRCC/bu800/lib/librbcodec.a(compressor.o)
 .data          0x000ec5c0        0x0 /home/ubuntu/Desktop/RockboxRCC/bu800/lib/librbcodec.a(crossfeed.o)
 .data          0x000ec5c0        0x0 /home/ubuntu/Desktop/RockboxRCC/bu800/lib/librbcodec.a(emu10k_space80.o)
 .data.rel.local
                0x000ec5c0       0x54 /home/ubuntu/Desktop/RockboxRCC/bu800/lib/librbcodec.a(emu10k_space80.o)
 .data          0x000ec614        0x0 /home/ubuntu/Desktop/RockboxRCC/bu800/lib/librbcodec.a(dsp_core.o)
 .data          0x000ec614        0x4 /home/ubuntu/Desktop/RockboxRCC/bu800/lib/librbcodec.a(surround.o)
 .data          0x000ec618        0x0 /home/ubuntu/Desktop/RockboxRCC/bu800/lib/librbcodec.a(aatube.o)
 .data          0x000ec618        0x0 /home/ubuntu/Desktop/RockboxRCC/bu800/lib/librbcodec.a(dsp_filter.o)
 .data          0x000ec618        0x4 /home/ubuntu/Desktop/RockboxRCC/bu800/lib/librbcodec.a(dsp_misc.o)
 .data          0x000ec61c        0x0 /home/ubuntu/Desktop/RockboxRCC/bu800/lib/librbcodec.a(dsp_sample_input.o)
 .data          0x000ec61c        0x0 /home/ubuntu/Desktop/RockboxRCC/bu800/lib/librbcodec.a(dsp_sample_output.o)
 .data          0x000ec61c        0x0 /home/ubuntu/Desktop/RockboxRCC/bu800/lib/librbcodec.a(eq.o)
 .data          0x000ec61c        0x0 /home/ubuntu/Desktop/RockboxRCC/bu800/lib/librbcodec.a(resample.o)
 .data          0x000ec61c       0x10 /home/ubuntu/Desktop/RockboxRCC/bu800/lib/librbcodec.a(pga.o)
 .data          0x000ec62c        0x0 /home/ubuntu/Desktop/RockboxRCC/bu800/lib/librbcodec.a(tdspeed.o)
 .data          0x000ec62c        0x8 /home/ubuntu/Desktop/RockboxRCC/bu800/lib/librbcodec.a(tone_controls.o)
 .data          0x000ec634        0x0 /home/ubuntu/Desktop/RockboxRCC/bu800/lib/librbcodec.a(dsp_arm.o)
 .data          0x000ec634        0x0 /home/ubuntu/Desktop/RockboxRCC/bu800/lib/librbcodec.a(replaygain.o)
 .data          0x000ec634        0x0 /home/ubuntu/Desktop/RockboxRCC/bu800/lib/librbcodec.a(metadata_common.o)
 .data          0x000ec634        0x0 /home/ubuntu/Desktop/RockboxRCC/bu800/lib/librbcodec.a(a52.o)
 .data          0x000ec634        0x0 /home/ubuntu/Desktop/RockboxRCC/bu800/lib/librbcodec.a(adx.o)
 .data          0x000ec634        0x0 /home/ubuntu/Desktop/RockboxRCC/bu800/lib/librbcodec.a(aiff.o)
 .data          0x000ec634        0x0 /home/ubuntu/Desktop/RockboxRCC/bu800/lib/librbcodec.a(asap.o)
 .data          0x000ec634        0x0 /home/ubuntu/Desktop/RockboxRCC/bu800/lib/librbcodec.a(asf.o)
 .data          0x000ec634        0x0 /home/ubuntu/Desktop/RockboxRCC/bu800/lib/librbcodec.a(au.o)
 .data          0x000ec634        0x0 /home/ubuntu/Desktop/RockboxRCC/bu800/lib/librbcodec.a(ay.o)
 .data          0x000ec634        0x0 /home/ubuntu/Desktop/RockboxRCC/bu800/lib/librbcodec.a(flac.o)
 .data          0x000ec634        0x0 /home/ubuntu/Desktop/RockboxRCC/bu800/lib/librbcodec.a(gbs.o)
 .data          0x000ec634        0x0 /home/ubuntu/Desktop/RockboxRCC/bu800/lib/librbcodec.a(hes.o)
 .data          0x000ec634        0x0 /home/ubuntu/Desktop/RockboxRCC/bu800/lib/librbcodec.a(kss.o)
 .data          0x000ec634        0x0 /home/ubuntu/Desktop/RockboxRCC/bu800/lib/librbcodec.a(mod.o)
 .data          0x000ec634        0x0 /home/ubuntu/Desktop/RockboxRCC/bu800/lib/librbcodec.a(monkeys.o)
 .data          0x000ec634        0x0 /home/ubuntu/Desktop/RockboxRCC/bu800/lib/librbcodec.a(mp4.o)
 .data          0x000ec634        0x0 /home/ubuntu/Desktop/RockboxRCC/bu800/lib/librbcodec.a(mpc.o)
 .data          0x000ec634        0x0 /home/ubuntu/Desktop/RockboxRCC/bu800/lib/librbcodec.a(nsf.o)
 .data          0x000ec634        0x0 /home/ubuntu/Desktop/RockboxRCC/bu800/lib/librbcodec.a(ogg.o)
 .data          0x000ec634        0x0 /home/ubuntu/Desktop/RockboxRCC/bu800/lib/librbcodec.a(oma.o)
 .data          0x000ec634        0x0 /home/ubuntu/Desktop/RockboxRCC/bu800/lib/librbcodec.a(rm.o)
 .data          0x000ec634        0x0 /home/ubuntu/Desktop/RockboxRCC/bu800/lib/librbcodec.a(sgc.o)
 .data          0x000ec634        0x0 /home/ubuntu/Desktop/RockboxRCC/bu800/lib/librbcodec.a(sid.o)
 .data          0x000ec634        0x0 /home/ubuntu/Desktop/RockboxRCC/bu800/lib/librbcodec.a(smaf.o)
 .data          0x000ec634        0x0 /home/ubuntu/Desktop/RockboxRCC/bu800/lib/librbcodec.a(spc.o)
 .data          0x000ec634        0x0 /home/ubuntu/Desktop/RockboxRCC/bu800/lib/librbcodec.a(tta.o)
 .data          0x000ec634        0x0 /home/ubuntu/Desktop/RockboxRCC/bu800/lib/librbcodec.a(vgm.o)
 .data          0x000ec634        0x0 /home/ubuntu/Desktop/RockboxRCC/bu800/lib/librbcodec.a(vorbis.o)
 .data          0x000ec634        0x0 /home/ubuntu/Desktop/RockboxRCC/bu800/lib/librbcodec.a(vox.o)
 .data          0x000ec634        0x0 /home/ubuntu/Desktop/RockboxRCC/bu800/lib/librbcodec.a(wave.o)
 .data          0x000ec634        0x0 /home/ubuntu/Desktop/RockboxRCC/bu800/lib/librbcodec.a(wavpack.o)
 .data          0x000ec634        0x0 /home/ubuntu/Desktop/RockboxRCC/bu800/lib/librbcodec.a(emu10k_core.o)
 .data          0x000ec634        0x0 /home/ubuntu/Desktop/RockboxRCC/bu800/lib/librbcodec.a(ape.o)
 .data          0x000ec634        0x0 /home/ubuntu/Desktop/RockboxRCC/bu800/lib/libunwarminder.a(backtrace.o)
 .data          0x000ec634        0x0 /home/ubuntu/Desktop/RockboxRCC/bu800/lib/libunwarminder.a(unwarminder.o)
 .data          0x000ec634        0x0 /home/ubuntu/Desktop/RockboxRCC/bu800/lib/libunwarminder.a(unwarm_thumb.o)
 .data          0x000ec634        0x4 /home/ubuntu/Desktop/RockboxRCC/bu800/lib/libunwarminder.a(safe_read.o)
 .data          0x000ec638        0x0 /home/ubuntu/Desktop/RockboxRCC/bu800/lib/libunwarminder.a(unwarm_arm.o)
 .data          0x000ec638        0x0 /home/ubuntu/Desktop/RockboxRCC/bu800/lib/libunwarminder.a(unwarm.o)
 .data          0x000ec638        0x0 /home/ubuntu/Desktop/RockboxRCC/bu800/lib/libunwarminder.a(unwarmmem.o)
 .data          0x000ec638        0x0 /home/ubuntu/Desktop/RockboxRCC/bu800/lib/libskin_parser.a(skin_buffer.o)
 .data          0x000ec638        0x0 /home/ubuntu/Desktop/RockboxRCC/bu800/lib/libskin_parser.a(skin_parser.o)
 .data          0x000ec638        0x0 /home/ubuntu/Desktop/RockboxRCC/bu800/lib/libskin_parser.a(skin_scan.o)
 .data          0x000ec638        0x0 /home/ubuntu/Desktop/RockboxRCC/bu800/lib/libskin_parser.a(tag_table.o)
 .data          0x000ec638        0x0 /home/ubuntu/Desktop/RockboxRCC/bu800/lib/libfixedpoint.a(fixedpoint.o)
 .data          0x000ec638        0x0 /home/ubuntu/Desktop/RockboxRCC/bu800/cpu-features.o
 .data          0x000ec638        0x0 /home/ubuntu/Desktop/RockboxRCC/bu800/firmware/target/hosted/android/jni/power-manager.o
 .data          0x000ec638        0x0 /home/ubuntu/android-ndk-r9c/toolchains/arm-linux-androideabi-4.6/prebuilt/linux-x86/bin/../lib/gcc/arm-linux-androideabi/4.6/libgcc.a(_udivsi3.o)
 .data          0x000ec638        0x0 /home/ubuntu/android-ndk-r9c/toolchains/arm-linux-androideabi-4.6/prebuilt/linux-x86/bin/../lib/gcc/arm-linux-androideabi/4.6/libgcc.a(_divsi3.o)
 .data          0x000ec638        0x0 /home/ubuntu/android-ndk-r9c/toolchains/arm-linux-androideabi-4.6/prebuilt/linux-x86/bin/../lib/gcc/arm-linux-androideabi/4.6/libgcc.a(_arm_addsubdf3.o)
 .data          0x000ec638        0x0 /home/ubuntu/android-ndk-r9c/toolchains/arm-linux-androideabi-4.6/prebuilt/linux-x86/bin/../lib/gcc/arm-linux-androideabi/4.6/libgcc.a(_arm_muldivdf3.o)
 .data          0x000ec638        0x0 /home/ubuntu/android-ndk-r9c/toolchains/arm-linux-androideabi-4.6/prebuilt/linux-x86/bin/../lib/gcc/arm-linux-androideabi/4.6/libgcc.a(_arm_truncdfsf2.o)
 .data          0x000ec638        0x0 /home/ubuntu/android-ndk-r9c/toolchains/arm-linux-androideabi-4.6/prebuilt/linux-x86/bin/../lib/gcc/arm-linux-androideabi/4.6/libgcc.a(_arm_addsubsf3.o)
 .data          0x000ec638        0x0 /home/ubuntu/android-ndk-r9c/toolchains/arm-linux-androideabi-4.6/prebuilt/linux-x86/bin/../lib/gcc/arm-linux-androideabi/4.6/libgcc.a(_arm_muldivsf3.o)
 .data          0x000ec638        0x0 /home/ubuntu/android-ndk-r9c/toolchains/arm-linux-androideabi-4.6/prebuilt/linux-x86/bin/../lib/gcc/arm-linux-androideabi/4.6/libgcc.a(_arm_fixsfsi.o)
 .data          0x000ec638        0x0 /home/ubuntu/android-ndk-r9c/toolchains/arm-linux-androideabi-4.6/prebuilt/linux-x86/bin/../lib/gcc/arm-linux-androideabi/4.6/libgcc.a(_aeabi_ldivmod.o)
 .data          0x000ec638        0x0 /home/ubuntu/android-ndk-r9c/toolchains/arm-linux-androideabi-4.6/prebuilt/linux-x86/bin/../lib/gcc/arm-linux-androideabi/4.6/libgcc.a(_aeabi_uldivmod.o)
 .data          0x000ec638        0x0 /home/ubuntu/android-ndk-r9c/toolchains/arm-linux-androideabi-4.6/prebuilt/linux-x86/bin/../lib/gcc/arm-linux-androideabi/4.6/libgcc.a(_dvmd_lnx.o)
 .data          0x000ec638        0x0 /home/ubuntu/android-ndk-r9c/toolchains/arm-linux-androideabi-4.6/prebuilt/linux-x86/bin/../lib/gcc/arm-linux-androideabi/4.6/libgcc.a(_popcountsi2.o)
 .data          0x000ec638        0x0 /home/ubuntu/android-ndk-r9c/toolchains/arm-linux-androideabi-4.6/prebuilt/linux-x86/bin/../lib/gcc/arm-linux-androideabi/4.6/libgcc.a(bpabi.o)
 .data          0x000ec638        0x0 /home/ubuntu/android-ndk-r9c/toolchains/arm-linux-androideabi-4.6/prebuilt/linux-x86/bin/../lib/gcc/arm-linux-androideabi/4.6/libgcc.a(unwind-arm.o)
 .data          0x000ec638        0x0 /home/ubuntu/android-ndk-r9c/toolchains/arm-linux-androideabi-4.6/prebuilt/linux-x86/bin/../lib/gcc/arm-linux-androideabi/4.6/libgcc.a(libunwind.o)
 .data          0x000ec638        0x0 /home/ubuntu/android-ndk-r9c/toolchains/arm-linux-androideabi-4.6/prebuilt/linux-x86/bin/../lib/gcc/arm-linux-androideabi/4.6/libgcc.a(pr-support.o)
 .data          0x000ec638        0x0 /home/ubuntu/android-ndk-r9c/toolchains/arm-linux-androideabi-4.6/prebuilt/linux-x86/bin/../lib/gcc/arm-linux-androideabi/4.6/libgcc.a(_popcount_tab.o)
 .data          0x000ec638        0x0 /home/ubuntu/android-ndk-r9c/toolchains/arm-linux-androideabi-4.6/prebuilt/linux-x86/bin/../lib/gcc/arm-linux-androideabi/4.6/libgcc.a(_divdi3.o)
 .data          0x000ec638        0x0 /home/ubuntu/android-ndk-r9c/toolchains/arm-linux-androideabi-4.6/prebuilt/linux-x86/bin/../lib/gcc/arm-linux-androideabi/4.6/libgcc.a(_udivdi3.o)
 .data          0x000ec638        0x0 /home/ubuntu/android-ndk-r9c/platforms/android-19/arch-arm/usr/lib/crtend_so.o

.bss            0x000ec640  0x23ebd10
 .bss           0x000ec640        0x0 /home/ubuntu/android-ndk-r9c/platforms/android-19/arch-arm/usr/lib/crtbegin_so.o
 .bss           0x000ec640       0x20 /home/ubuntu/Desktop/RockboxRCC/bu800/apps/action.o
 .bss           0x000ec660        0xc /home/ubuntu/Desktop/RockboxRCC/bu800/apps/abrepeat.o
                0x000ec668                ab_A_marker
                0x000ec664                ab_B_marker
 .bss           0x000ec66c      0x8fc /home/ubuntu/Desktop/RockboxRCC/bu800/apps/bookmark.o
 .bss           0x000ecf68       0xa4 /home/ubuntu/Desktop/RockboxRCC/bu800/apps/debug_menu.o
 .bss           0x000ed00c     0x1504 /home/ubuntu/Desktop/RockboxRCC/bu800/apps/filetypes.o
 .bss           0x000ee510     0x5008 /home/ubuntu/Desktop/RockboxRCC/bu800/apps/language.o
 .bss           0x000f3518        0x0 /home/ubuntu/Desktop/RockboxRCC/bu800/apps/main.o
 .bss           0x000f3518      0x108 /home/ubuntu/Desktop/RockboxRCC/bu800/apps/menu.o
 .bss           0x000f3620        0x0 /home/ubuntu/Desktop/RockboxRCC/bu800/apps/menus/menu_common.o
 .bss           0x000f3620        0x0 /home/ubuntu/Desktop/RockboxRCC/bu800/apps/menus/display_menu.o
 .bss           0x000f3620        0x8 /home/ubuntu/Desktop/RockboxRCC/bu800/apps/menus/theme_menu.o
 .bss           0x000f3628        0x0 /home/ubuntu/Desktop/RockboxRCC/bu800/apps/menus/plugin_menu.o
 .bss           0x000f3628        0x0 /home/ubuntu/Desktop/RockboxRCC/bu800/apps/menus/eq_menu.o
 .bss           0x000f3628     0x3148 /home/ubuntu/Desktop/RockboxRCC/bu800/apps/buffering.o
 .bss           0x000f6770     0x14bc /home/ubuntu/Desktop/RockboxRCC/bu800/apps/voice_thread.o
 .bss           0x000f7c2c       0x10 /home/ubuntu/Desktop/RockboxRCC/bu800/apps/rbcodec_helpers.o
 .bss           0x000f7c3c        0x0 /home/ubuntu/Desktop/RockboxRCC/bu800/apps/menus/main_menu.o
 .bss           0x000f7c3c        0x8 /home/ubuntu/Desktop/RockboxRCC/bu800/apps/menus/playback_menu.o
 .bss           0x000f7c44        0x0 /home/ubuntu/Desktop/RockboxRCC/bu800/apps/menus/playlist_menu.o
 .bss           0x000f7c44       0x10 /home/ubuntu/Desktop/RockboxRCC/bu800/apps/menus/settings_menu.o
 .bss           0x000f7c54       0x1c /home/ubuntu/Desktop/RockboxRCC/bu800/apps/menus/sound_menu.o
 .bss           0x000f7c70       0x50 /home/ubuntu/Desktop/RockboxRCC/bu800/apps/menus/time_menu.o
 .bss           0x000f7cc0       0x44 /home/ubuntu/Desktop/RockboxRCC/bu800/apps/misc.o
 .bss           0x000f7d04      0x220 /home/ubuntu/Desktop/RockboxRCC/bu800/apps/onplay.o
 .bss           0x000f7f24      0x640 /home/ubuntu/Desktop/RockboxRCC/bu800/apps/playlist.o
 .bss           0x000f8564      0x424 /home/ubuntu/Desktop/RockboxRCC/bu800/apps/playlist_catalog.o
 .bss           0x000f8988     0x14b4 /home/ubuntu/Desktop/RockboxRCC/bu800/apps/playlist_viewer.o
 .bss           0x000f9e3c   0x400224 /home/ubuntu/Desktop/RockboxRCC/bu800/apps/plugin.o
 .bss           0x004fa060      0x23c /home/ubuntu/Desktop/RockboxRCC/bu800/apps/root_menu.o
 .bss           0x004fa29c        0x0 /home/ubuntu/Desktop/RockboxRCC/bu800/apps/screens.o
 .bss           0x004fa29c       0x34 /home/ubuntu/Desktop/RockboxRCC/bu800/apps/settings.o
                0x004fa2cc                lasttime
 .bss           0x004fa2d0        0x4 /home/ubuntu/Desktop/RockboxRCC/bu800/apps/settings_list.o
 .bss           0x004fa2d4        0xc /home/ubuntu/Desktop/RockboxRCC/bu800/apps/shortcuts.o
 .bss           0x004fa2e0        0x4 /home/ubuntu/Desktop/RockboxRCC/bu800/apps/status.o
 .bss           0x004fa2e4        0x0 /home/ubuntu/Desktop/RockboxRCC/bu800/apps/cuesheet.o
 .bss           0x004fa2e4      0xbdc /home/ubuntu/Desktop/RockboxRCC/bu800/apps/talk.o
 .bss           0x004faec0      0xfe0 /home/ubuntu/Desktop/RockboxRCC/bu800/apps/tree.o
 .bss           0x004fbea0    0x103d4 /home/ubuntu/Desktop/RockboxRCC/bu800/apps/tagtree.o
 .bss           0x0050c274        0x4 /home/ubuntu/Desktop/RockboxRCC/bu800/apps/filetree.o
 .bss           0x0050c278       0x10 /home/ubuntu/Desktop/RockboxRCC/bu800/apps/scrobbler.o
 .bss           0x0050c288        0x0 /home/ubuntu/Desktop/RockboxRCC/bu800/apps/screen_access.o
 .bss           0x0050c288       0x48 /home/ubuntu/Desktop/RockboxRCC/bu800/apps/gui/icon.o
 .bss           0x0050c2d0      0x4c4 /home/ubuntu/Desktop/RockboxRCC/bu800/apps/gui/list.o
 .bss           0x0050c794      0x3a0 /home/ubuntu/Desktop/RockboxRCC/bu800/apps/gui/line.o
 .bss           0x0050cb34       0x9c /home/ubuntu/Desktop/RockboxRCC/bu800/apps/gui/bitmap/list.o
 .bss           0x0050cbd0       0x28 /home/ubuntu/Desktop/RockboxRCC/bu800/apps/gui/bitmap/list-skinned.o
 .bss           0x0050cbf8        0xc /home/ubuntu/Desktop/RockboxRCC/bu800/apps/gui/option_select.o
 .bss           0x0050cc04        0x2 /home/ubuntu/Desktop/RockboxRCC/bu800/apps/gui/pitchscreen.o
 .bss           0x0050cc06        0x0 /home/ubuntu/Desktop/RockboxRCC/bu800/apps/gui/quickscreen.o
 .bss           0x0050cc08      0x21c /home/ubuntu/Desktop/RockboxRCC/bu800/apps/gui/folder_select.o
 .bss           0x0050ce24        0x0 /home/ubuntu/Desktop/RockboxRCC/bu800/apps/gui/wps.o
 .bss           0x0050ce24        0x4 /home/ubuntu/Desktop/RockboxRCC/bu800/apps/gui/scrollbar.o
 .bss           0x0050ce28        0x0 /home/ubuntu/Desktop/RockboxRCC/bu800/apps/gui/splash.o
 .bss           0x0050ce28        0x0 /home/ubuntu/Desktop/RockboxRCC/bu800/apps/gui/statusbar.o
 .bss           0x0050ce28       0xa0 /home/ubuntu/Desktop/RockboxRCC/bu800/apps/gui/statusbar-skinned.o
 .bss           0x0050cec8       0x1c /home/ubuntu/Desktop/RockboxRCC/bu800/apps/hosted/android/yesno.o
 .bss           0x0050cee4       0x1c /home/ubuntu/Desktop/RockboxRCC/bu800/apps/hosted/android/notification.o
 .bss           0x0050cf00       0x8c /home/ubuntu/Desktop/RockboxRCC/bu800/apps/gui/viewport.o
 .bss           0x0050cf8c      0x440 /home/ubuntu/Desktop/RockboxRCC/bu800/apps/gui/skin_engine/skin_backdrops.o
 .bss           0x0050d3cc        0x0 /home/ubuntu/Desktop/RockboxRCC/bu800/apps/gui/skin_engine/skin_display.o
 .bss           0x0050d3cc       0xb4 /home/ubuntu/Desktop/RockboxRCC/bu800/apps/gui/skin_engine/skin_engine.o
                0x0050d470                wps_state
 .bss           0x0050d480       0xb4 /home/ubuntu/Desktop/RockboxRCC/bu800/apps/gui/skin_engine/skin_parser.o
 .bss           0x0050d534       0x84 /home/ubuntu/Desktop/RockboxRCC/bu800/apps/gui/skin_engine/skin_render.o
 .bss           0x0050d5b8      0xa58 /home/ubuntu/Desktop/RockboxRCC/bu800/apps/gui/skin_engine/skin_tokens.o
 .bss           0x0050e010        0x0 /home/ubuntu/Desktop/RockboxRCC/bu800/apps/gui/skin_engine/skin_touchsupport.o
 .bss           0x0050e010        0x0 /home/ubuntu/Desktop/RockboxRCC/bu800/apps/gui/backdrop.o
 .bss           0x0050e010        0x0 /home/ubuntu/Desktop/RockboxRCC/bu800/apps/recorder/bmp.o
 .bss           0x0050e010        0x0 /home/ubuntu/Desktop/RockboxRCC/bu800/apps/recorder/icons.o
 .bss           0x0050e010       0x24 /home/ubuntu/Desktop/RockboxRCC/bu800/apps/hosted/android/keyboard.o
 .bss           0x0050e034       0x94 /home/ubuntu/Desktop/RockboxRCC/bu800/apps/recorder/peakmeter.o
 .bss           0x0050e0c8        0x0 /home/ubuntu/Desktop/RockboxRCC/bu800/apps/recorder/resize.o
 .bss           0x0050e0c8        0x0 /home/ubuntu/Desktop/RockboxRCC/bu800/apps/recorder/jpeg_load.o
 .bss           0x0050e0c8        0x0 /home/ubuntu/Desktop/RockboxRCC/bu800/apps/recorder/jpeg_idct_arm.o
 .bss           0x0050e0c8        0x0 /home/ubuntu/Desktop/RockboxRCC/bu800/apps/recorder/albumart.o
 .bss           0x0050e0c8        0x0 /home/ubuntu/Desktop/RockboxRCC/bu800/apps/gui/color_picker.o
 .bss           0x0050e0c8     0x205c /home/ubuntu/Desktop/RockboxRCC/bu800/apps/audio_thread.o
                0x00510120                audio_is_initialized
                0x0051011c                audio_thread_id
 .bss           0x00510124       0x5c /home/ubuntu/Desktop/RockboxRCC/bu800/apps/pcmbuf.o
 .bss           0x00510180     0x30f0 /home/ubuntu/Desktop/RockboxRCC/bu800/apps/codec_thread.o
 .bss           0x00513270     0x1f58 /home/ubuntu/Desktop/RockboxRCC/bu800/apps/playback.o
                0x005151c0                skip_pending
                0x005151c4                play_status
 .bss           0x005151c8   0x10000c /home/ubuntu/Desktop/RockboxRCC/bu800/apps/codecs.o
 .bss           0x006151d4      0x170 /home/ubuntu/Desktop/RockboxRCC/bu800/apps/beep.o
 .bss           0x00615344     0x6bf4 /home/ubuntu/Desktop/RockboxRCC/bu800/apps/tagcache.o
 .bss           0x0061bf38        0x0 /home/ubuntu/Desktop/RockboxRCC/bu800/apps/keymaps/keymap-touchscreen.o
 .bss           0x0061bf38        0x0 /home/ubuntu/Desktop/RockboxRCC/bu800/apps/keymaps/keymap-android.o
 .bss           0x0061bf38        0x0 /home/ubuntu/Desktop/RockboxRCC/bu800/apps/bitmaps/mono/default_icons.o
 .bss           0x0061bf38        0x0 /home/ubuntu/Desktop/RockboxRCC/bu800/apps/bitmaps/native/rockboxlogo.640x198x16.o
 .bss           0x0061bf38        0x0 /home/ubuntu/Desktop/RockboxRCC/bu800/apps/bitmaps/native/usblogo.176x48x16.o
 .bss           0x0061bf38        0x0 /home/ubuntu/Desktop/RockboxRCC/bu800/lang/lang_core.o
 .bss           0x0061bf38        0x0 /home/ubuntu/Desktop/RockboxRCC/bu800/firmware/libfirmware.a(ata_idle_notify.o)
 .bss           0x0061bf38      0x150 /home/ubuntu/Desktop/RockboxRCC/bu800/firmware/libfirmware.a(events.o)
 .bss           0x0061c088        0x0 /home/ubuntu/Desktop/RockboxRCC/bu800/firmware/libfirmware.a(backlight.o)
 .bss           0x0061c088        0x0 /home/ubuntu/Desktop/RockboxRCC/bu800/firmware/libfirmware.a(buflib.o)
 .bss           0x0061c088        0x4 /home/ubuntu/Desktop/RockboxRCC/bu800/firmware/libfirmware.a(core_alloc.o)
 .bss           0x0061c08c       0x2c /home/ubuntu/Desktop/RockboxRCC/bu800/firmware/libfirmware.a(general.o)
 .bss           0x0061c0b8     0x110c /home/ubuntu/Desktop/RockboxRCC/bu800/firmware/libfirmware.a(powermgmt.o)
                0x0061d0d4                power_history
 .bss           0x0061d1c4     0x1614 /home/ubuntu/Desktop/RockboxRCC/bu800/firmware/libfirmware.a(cpuinfo-linux.o)
 .bss           0x0061e7d8        0x1 /home/ubuntu/Desktop/RockboxRCC/bu800/firmware/libfirmware.a(usb.o)
                0x0061e7d8                do_screendump_instead_of_usb
 .bss           0x0061e7dc       0x80 /home/ubuntu/Desktop/RockboxRCC/bu800/firmware/libfirmware.a(panic.o)
 .bss           0x0061e85c        0x0 /home/ubuntu/Desktop/RockboxRCC/bu800/firmware/libfirmware.a(version.o)
 .bss           0x0061e85c        0x0 /home/ubuntu/Desktop/RockboxRCC/bu800/firmware/libfirmware.a(crc32.o)
 .bss           0x0061e85c        0x0 /home/ubuntu/Desktop/RockboxRCC/bu800/firmware/libfirmware.a(filefuncs.o)
 .bss           0x0061e85c        0x0 /home/ubuntu/Desktop/RockboxRCC/bu800/firmware/libfirmware.a(format.o)
 .bss           0x0061e85c        0x0 /home/ubuntu/Desktop/RockboxRCC/bu800/firmware/libfirmware.a(rbpaths.o)
 .bss           0x0061e85c        0x0 /home/ubuntu/Desktop/RockboxRCC/bu800/firmware/libfirmware.a(strcasecmp.o)
 .bss           0x0061e85c        0x0 /home/ubuntu/Desktop/RockboxRCC/bu800/firmware/libfirmware.a(strcasestr.o)
 .bss           0x0061e85c        0x0 /home/ubuntu/Desktop/RockboxRCC/bu800/firmware/libfirmware.a(strnatcmp.o)
 .bss           0x0061e85c        0x0 /home/ubuntu/Desktop/RockboxRCC/bu800/firmware/libfirmware.a(strlcat.o)
 .bss           0x0061e85c        0x0 /home/ubuntu/Desktop/RockboxRCC/bu800/firmware/libfirmware.a(strlcpy.o)
 .bss           0x0061e85c        0x0 /home/ubuntu/Desktop/RockboxRCC/bu800/firmware/libfirmware.a(structec.o)
 .bss           0x0061e85c       0x30 /home/ubuntu/Desktop/RockboxRCC/bu800/firmware/libfirmware.a(timefuncs.o)
 .bss           0x0061e88c    0x10008 /home/ubuntu/Desktop/RockboxRCC/bu800/firmware/libfirmware.a(unicode.o)
 .bss           0x0062e894     0x76c0 /home/ubuntu/Desktop/RockboxRCC/bu800/firmware/libfirmware.a(scroll_engine.o)
 .bss           0x00635f54     0x1af8 /home/ubuntu/Desktop/RockboxRCC/bu800/firmware/libfirmware.a(bidi.o)
 .bss           0x00637a4c      0x13c /home/ubuntu/Desktop/RockboxRCC/bu800/firmware/libfirmware.a(font.o)
 .bss           0x00637b88        0x0 /home/ubuntu/Desktop/RockboxRCC/bu800/firmware/libfirmware.a(lru.o)
 .bss           0x00637b88        0x4 /home/ubuntu/Desktop/RockboxRCC/bu800/firmware/libfirmware.a(screendump.o)
 .bss           0x00637b8c        0x8 /home/ubuntu/Desktop/RockboxRCC/bu800/firmware/libfirmware.a(lcd-16bit.o)
 .bss           0x00637b94       0x44 /home/ubuntu/Desktop/RockboxRCC/bu800/firmware/libfirmware.a(diacritic.o)
 .bss           0x00637bd8        0x8 /home/ubuntu/Desktop/RockboxRCC/bu800/firmware/libfirmware.a(led.o)
 .bss           0x00637be0       0x34 /home/ubuntu/Desktop/RockboxRCC/bu800/firmware/libfirmware.a(button.o)
 .bss           0x00637c14        0x4 /home/ubuntu/Desktop/RockboxRCC/bu800/firmware/libfirmware.a(touchscreen.o)
 .bss           0x00637c18       0x14 /home/ubuntu/Desktop/RockboxRCC/bu800/firmware/libfirmware.a(sound.o)
 .bss           0x00637c2c        0x0 /home/ubuntu/Desktop/RockboxRCC/bu800/firmware/libfirmware.a(pcm_sampr.o)
 .bss           0x00637c2c       0x28 /home/ubuntu/Desktop/RockboxRCC/bu800/firmware/libfirmware.a(pcm.o)
                0x00637c50                pcm_callback_for_more
                0x00637c4c                pcm_play_status_callback
                0x00637c48                pcm_paused
                0x00637c49                pcm_playing
                0x00637c44                pcm_curr_sampr
                0x00637c40                pcm_fsel
 .bss           0x00637c60      0x880 /home/ubuntu/Desktop/RockboxRCC/bu800/firmware/libfirmware.a(pcm_mixer.o)
 .bss           0x006384e0        0x0 /home/ubuntu/Desktop/RockboxRCC/bu800/firmware/libfirmware.a(audiohw-swcodec.o)
 .bss           0x006384e0        0xc /home/ubuntu/Desktop/RockboxRCC/bu800/firmware/libfirmware.a(kernel-unix.o)
 .bss           0x006384ec        0x0 /home/ubuntu/Desktop/RockboxRCC/bu800/firmware/libfirmware.a(filesystem-unix.o)
 .bss           0x006384ec        0x0 /home/ubuntu/Desktop/RockboxRCC/bu800/firmware/libfirmware.a(lc-unix.o)
 .bss           0x006384ec       0x28 /home/ubuntu/Desktop/RockboxRCC/bu800/firmware/libfirmware.a(lcd-android.o)
 .bss           0x00638514       0x14 /home/ubuntu/Desktop/RockboxRCC/bu800/firmware/libfirmware.a(button-android.o)
 .bss           0x00638528       0x28 /home/ubuntu/Desktop/RockboxRCC/bu800/firmware/libfirmware.a(pcm-android.o)
 .bss           0x00638550        0x8 /home/ubuntu/Desktop/RockboxRCC/bu800/firmware/libfirmware.a(powermgmt-android.o)
 .bss           0x00638558      0x110 /home/ubuntu/Desktop/RockboxRCC/bu800/firmware/libfirmware.a(system-android.o)
 .bss           0x00638668        0x0 /home/ubuntu/Desktop/RockboxRCC/bu800/firmware/libfirmware.a(telephony-android.o)
 .bss           0x00638668        0x1 /home/ubuntu/Desktop/RockboxRCC/bu800/firmware/libfirmware.a(button-application.o)
 .bss           0x00638669        0x0 /home/ubuntu/Desktop/RockboxRCC/bu800/firmware/libfirmware.a(android.o)
 .bss           0x00638669        0x0 /home/ubuntu/Desktop/RockboxRCC/bu800/firmware/libfirmware.a(mutex.o)
 .bss           0x0063866c       0x84 /home/ubuntu/Desktop/RockboxRCC/bu800/firmware/libfirmware.a(queue.o)
 .bss           0x006386f0        0x0 /home/ubuntu/Desktop/RockboxRCC/bu800/firmware/libfirmware.a(semaphore.o)
 .bss           0x006386f0       0x54 /home/ubuntu/Desktop/RockboxRCC/bu800/firmware/libfirmware.a(thread.o)
 .bss           0x00638744        0x4 /home/ubuntu/Desktop/RockboxRCC/bu800/firmware/libfirmware.a(tick.o)
                0x00638744                current_tick
 .bss           0x00638748       0x24 /home/ubuntu/Desktop/RockboxRCC/bu800/firmware/libfirmware.a(timeout.o)
 .bss           0x0063876c        0x0 /home/ubuntu/Desktop/RockboxRCC/bu800/firmware/libfirmware.a(sysfont.o)
 .bss           0x0063876c        0x0 /home/ubuntu/Desktop/RockboxRCC/bu800/firmware/libfirmware.a(ffs.o)
 .bss           0x0063876c        0x0 /home/ubuntu/Desktop/RockboxRCC/bu800/firmware/libfirmware.a(memset16.o)
 .bss           0x0063876c        0x0 /home/ubuntu/Desktop/RockboxRCC/bu800/firmware/libfirmware.a(rtc.o)
 .bss           0x0063876c        0x0 /home/ubuntu/Desktop/RockboxRCC/bu800/firmware/libfirmware.a(arabjoin.o)
 .bss           0x0063876c        0x0 /home/ubuntu/Desktop/RockboxRCC/bu800/firmware/libfirmware.a(font_cache.o)
 .bss           0x0063876c        0x0 /home/ubuntu/Desktop/RockboxRCC/bu800/lib/rbcodec/codecs/libspeex-voice.a(bits.o)
 .bss           0x0063876c        0x0 /home/ubuntu/Desktop/RockboxRCC/bu800/lib/rbcodec/codecs/libspeex-voice.a(modes_wb.o)
 .bss           0x0063876c        0x0 /home/ubuntu/Desktop/RockboxRCC/bu800/lib/rbcodec/codecs/libspeex-voice.a(quant_lsp.o)
 .bss           0x0063876c      0x20c /home/ubuntu/Desktop/RockboxRCC/bu800/lib/rbcodec/codecs/libspeex-voice.a(sb_celp.o)
 .bss           0x00638978        0x0 /home/ubuntu/Desktop/RockboxRCC/bu800/lib/rbcodec/codecs/libspeex-voice.a(speex.o)
 .bss           0x00638978        0x0 /home/ubuntu/Desktop/RockboxRCC/bu800/lib/rbcodec/codecs/libspeex-voice.a(filters_arm4.o)
 .bss           0x00638978        0x0 /home/ubuntu/Desktop/RockboxRCC/bu800/lib/rbcodec/codecs/libspeex-voice.a(cb_search.o)
 .bss           0x00638978        0x0 /home/ubuntu/Desktop/RockboxRCC/bu800/lib/rbcodec/codecs/libspeex-voice.a(filters.o)
 .bss           0x00638978        0x0 /home/ubuntu/Desktop/RockboxRCC/bu800/lib/rbcodec/codecs/libspeex-voice.a(hexc_10_32_table.o)
 .bss           0x00638978        0x0 /home/ubuntu/Desktop/RockboxRCC/bu800/lib/rbcodec/codecs/libspeex-voice.a(hexc_table.o)
 .bss           0x00638978        0x0 /home/ubuntu/Desktop/RockboxRCC/bu800/lib/rbcodec/codecs/libspeex-voice.a(high_lsp_tables.o)
 .bss           0x00638978        0x0 /home/ubuntu/Desktop/RockboxRCC/bu800/lib/rbcodec/codecs/libspeex-voice.a(lsp.o)
 .bss           0x00638978        0x0 /home/ubuntu/Desktop/RockboxRCC/bu800/lib/rbcodec/codecs/libspeex-voice.a(lsp_tables_nb.o)
 .bss           0x00638978        0x0 /home/ubuntu/Desktop/RockboxRCC/bu800/lib/rbcodec/codecs/libspeex-voice.a(ltp.o)
 .bss           0x00638978        0x0 /home/ubuntu/Desktop/RockboxRCC/bu800/lib/rbcodec/codecs/libspeex-voice.a(modes.o)
 .bss           0x00638978      0x624 /home/ubuntu/Desktop/RockboxRCC/bu800/lib/rbcodec/codecs/libspeex-voice.a(nb_celp.o)
 .bss           0x00638f9c        0x0 /home/ubuntu/Desktop/RockboxRCC/bu800/lib/rbcodec/codecs/libspeex-voice.a(speex_callbacks.o)
 .bss           0x00638f9c        0x0 /home/ubuntu/Desktop/RockboxRCC/bu800/lib/rbcodec/codecs/libspeex-voice.a(exc_10_16_table.o)
 .bss           0x00638f9c        0x0 /home/ubuntu/Desktop/RockboxRCC/bu800/lib/rbcodec/codecs/libspeex-voice.a(exc_10_32_table.o)
 .bss           0x00638f9c        0x0 /home/ubuntu/Desktop/RockboxRCC/bu800/lib/rbcodec/codecs/libspeex-voice.a(exc_20_32_table.o)
 .bss           0x00638f9c        0x0 /home/ubuntu/Desktop/RockboxRCC/bu800/lib/rbcodec/codecs/libspeex-voice.a(exc_5_256_table.o)
 .bss           0x00638f9c        0x0 /home/ubuntu/Desktop/RockboxRCC/bu800/lib/rbcodec/codecs/libspeex-voice.a(exc_5_64_table.o)
 .bss           0x00638f9c        0x0 /home/ubuntu/Desktop/RockboxRCC/bu800/lib/rbcodec/codecs/libspeex-voice.a(exc_8_128_table.o)
 .bss           0x00638f9c        0x0 /home/ubuntu/Desktop/RockboxRCC/bu800/lib/rbcodec/codecs/libspeex-voice.a(gain_table.o)
 .bss           0x00638f9c        0x0 /home/ubuntu/Desktop/RockboxRCC/bu800/lib/rbcodec/codecs/libspeex-voice.a(gain_table_lbr.o)
 .bss           0x00638f9c        0x1 /home/ubuntu/Desktop/RockboxRCC/bu800/lib/librbcodec.a(metadata.o)
                0x00638f9c                write_metadata_log
 .bss           0x00638f9d        0x1 /home/ubuntu/Desktop/RockboxRCC/bu800/lib/librbcodec.a(id3tags.o)
 .bss           0x00638f9e        0x0 /home/ubuntu/Desktop/RockboxRCC/bu800/lib/librbcodec.a(mp3.o)
 .bss           0x00638fa0       0x20 /home/ubuntu/Desktop/RockboxRCC/bu800/lib/librbcodec.a(mp3data.o)
 .bss           0x00638fc0        0xc /home/ubuntu/Desktop/RockboxRCC/bu800/lib/librbcodec.a(channel_mode.o)
 .bss           0x00638fcc     0x3d60 /home/ubuntu/Desktop/RockboxRCC/bu800/lib/librbcodec.a(compressor.o)
 .bss           0x0063cd2c       0xa0 /home/ubuntu/Desktop/RockboxRCC/bu800/lib/librbcodec.a(crossfeed.o)
 .bss           0x0063cdcc     0x3e44 /home/ubuntu/Desktop/RockboxRCC/bu800/lib/librbcodec.a(emu10k_space80.o)
 .bss           0x00640c10      0x1d0 /home/ubuntu/Desktop/RockboxRCC/bu800/lib/librbcodec.a(dsp_core.o)
 .bss           0x00640de0    0x60008 /home/ubuntu/Desktop/RockboxRCC/bu800/lib/librbcodec.a(surround.o)
 .bss           0x006a0de8       0x10 /home/ubuntu/Desktop/RockboxRCC/bu800/lib/librbcodec.a(aatube.o)
 .bss           0x006a0df8        0x0 /home/ubuntu/Desktop/RockboxRCC/bu800/lib/librbcodec.a(dsp_filter.o)
 .bss           0x006a0df8       0x1c /home/ubuntu/Desktop/RockboxRCC/bu800/lib/librbcodec.a(dsp_misc.o)
 .bss           0x006a0e14      0x600 /home/ubuntu/Desktop/RockboxRCC/bu800/lib/librbcodec.a(dsp_sample_input.o)
 .bss           0x006a1414       0x24 /home/ubuntu/Desktop/RockboxRCC/bu800/lib/librbcodec.a(dsp_sample_output.o)
 .bss           0x006a1438      0x81c /home/ubuntu/Desktop/RockboxRCC/bu800/lib/librbcodec.a(eq.o)
 .bss           0x006a1c54      0x998 /home/ubuntu/Desktop/RockboxRCC/bu800/lib/librbcodec.a(resample.o)
 .bss           0x006a25ec        0x0 /home/ubuntu/Desktop/RockboxRCC/bu800/lib/librbcodec.a(pga.o)
 .bss           0x006a25ec       0x5c /home/ubuntu/Desktop/RockboxRCC/bu800/lib/librbcodec.a(tdspeed.o)
 .bss           0x006a2648       0x80 /home/ubuntu/Desktop/RockboxRCC/bu800/lib/librbcodec.a(tone_controls.o)
 .bss           0x006a26c8        0x0 /home/ubuntu/Desktop/RockboxRCC/bu800/lib/librbcodec.a(dsp_arm.o)
 .bss           0x006a26c8        0x0 /home/ubuntu/Desktop/RockboxRCC/bu800/lib/librbcodec.a(replaygain.o)
 .bss           0x006a26c8        0x0 /home/ubuntu/Desktop/RockboxRCC/bu800/lib/librbcodec.a(metadata_common.o)
 .bss           0x006a26c8        0x0 /home/ubuntu/Desktop/RockboxRCC/bu800/lib/librbcodec.a(a52.o)
 .bss           0x006a26c8        0x0 /home/ubuntu/Desktop/RockboxRCC/bu800/lib/librbcodec.a(adx.o)
 .bss           0x006a26c8        0x0 /home/ubuntu/Desktop/RockboxRCC/bu800/lib/librbcodec.a(aiff.o)
 .bss           0x006a26c8        0x0 /home/ubuntu/Desktop/RockboxRCC/bu800/lib/librbcodec.a(asap.o)
 .bss           0x006a26c8        0x0 /home/ubuntu/Desktop/RockboxRCC/bu800/lib/librbcodec.a(asf.o)
 .bss           0x006a26c8        0x0 /home/ubuntu/Desktop/RockboxRCC/bu800/lib/librbcodec.a(au.o)
 .bss           0x006a26c8        0x0 /home/ubuntu/Desktop/RockboxRCC/bu800/lib/librbcodec.a(ay.o)
 .bss           0x006a26c8        0x0 /home/ubuntu/Desktop/RockboxRCC/bu800/lib/librbcodec.a(flac.o)
 .bss           0x006a26c8        0x0 /home/ubuntu/Desktop/RockboxRCC/bu800/lib/librbcodec.a(gbs.o)
 .bss           0x006a26c8        0x0 /home/ubuntu/Desktop/RockboxRCC/bu800/lib/librbcodec.a(hes.o)
 .bss           0x006a26c8        0x0 /home/ubuntu/Desktop/RockboxRCC/bu800/lib/librbcodec.a(kss.o)
 .bss           0x006a26c8        0x0 /home/ubuntu/Desktop/RockboxRCC/bu800/lib/librbcodec.a(mod.o)
 .bss           0x006a26c8        0x0 /home/ubuntu/Desktop/RockboxRCC/bu800/lib/librbcodec.a(monkeys.o)
 .bss           0x006a26c8        0x0 /home/ubuntu/Desktop/RockboxRCC/bu800/lib/librbcodec.a(mp4.o)
 .bss           0x006a26c8        0x0 /home/ubuntu/Desktop/RockboxRCC/bu800/lib/librbcodec.a(mpc.o)
 .bss           0x006a26c8        0x0 /home/ubuntu/Desktop/RockboxRCC/bu800/lib/librbcodec.a(nsf.o)
 .bss           0x006a26c8        0x0 /home/ubuntu/Desktop/RockboxRCC/bu800/lib/librbcodec.a(ogg.o)
 .bss           0x006a26c8        0x0 /home/ubuntu/Desktop/RockboxRCC/bu800/lib/librbcodec.a(oma.o)
 .bss           0x006a26c8        0x0 /home/ubuntu/Desktop/RockboxRCC/bu800/lib/librbcodec.a(rm.o)
 .bss           0x006a26c8        0x0 /home/ubuntu/Desktop/RockboxRCC/bu800/lib/librbcodec.a(sgc.o)
 .bss           0x006a26c8        0x0 /home/ubuntu/Desktop/RockboxRCC/bu800/lib/librbcodec.a(sid.o)
 .bss           0x006a26c8        0x0 /home/ubuntu/Desktop/RockboxRCC/bu800/lib/librbcodec.a(smaf.o)
 .bss           0x006a26c8        0x0 /home/ubuntu/Desktop/RockboxRCC/bu800/lib/librbcodec.a(spc.o)
 .bss           0x006a26c8        0x0 /home/ubuntu/Desktop/RockboxRCC/bu800/lib/librbcodec.a(tta.o)
 .bss           0x006a26c8        0x0 /home/ubuntu/Desktop/RockboxRCC/bu800/lib/librbcodec.a(vgm.o)
 .bss           0x006a26c8        0x0 /home/ubuntu/Desktop/RockboxRCC/bu800/lib/librbcodec.a(vorbis.o)
 .bss           0x006a26c8        0x0 /home/ubuntu/Desktop/RockboxRCC/bu800/lib/librbcodec.a(vox.o)
 .bss           0x006a26c8        0x0 /home/ubuntu/Desktop/RockboxRCC/bu800/lib/librbcodec.a(wave.o)
 .bss           0x006a26c8        0x0 /home/ubuntu/Desktop/RockboxRCC/bu800/lib/librbcodec.a(wavpack.o)
 .bss           0x006a26c8        0x0 /home/ubuntu/Desktop/RockboxRCC/bu800/lib/librbcodec.a(emu10k_core.o)
 .bss           0x006a26c8        0x0 /home/ubuntu/Desktop/RockboxRCC/bu800/lib/librbcodec.a(ape.o)
 .bss           0x006a26c8        0x0 /home/ubuntu/Desktop/RockboxRCC/bu800/lib/libunwarminder.a(backtrace.o)
 .bss           0x006a26c8        0x0 /home/ubuntu/Desktop/RockboxRCC/bu800/lib/libunwarminder.a(unwarminder.o)
 .bss           0x006a26c8        0x0 /home/ubuntu/Desktop/RockboxRCC/bu800/lib/libunwarminder.a(unwarm_thumb.o)
 .bss           0x006a26c8        0x0 /home/ubuntu/Desktop/RockboxRCC/bu800/lib/libunwarminder.a(safe_read.o)
 .bss           0x006a26c8        0x0 /home/ubuntu/Desktop/RockboxRCC/bu800/lib/libunwarminder.a(unwarm_arm.o)
 .bss           0x006a26c8        0x0 /home/ubuntu/Desktop/RockboxRCC/bu800/lib/libunwarminder.a(unwarm.o)
 .bss           0x006a26c8        0x0 /home/ubuntu/Desktop/RockboxRCC/bu800/lib/libunwarminder.a(unwarmmem.o)
 .bss           0x006a26c8        0xc /home/ubuntu/Desktop/RockboxRCC/bu800/lib/libskin_parser.a(skin_buffer.o)
 .bss           0x006a26d4       0x14 /home/ubuntu/Desktop/RockboxRCC/bu800/lib/libskin_parser.a(skin_parser.o)
                0x006a26e4                skin_line
                0x006a26e0                skin_start
                0x006a26dc                viewport_line
 .bss           0x006a26e8        0x0 /home/ubuntu/Desktop/RockboxRCC/bu800/lib/libskin_parser.a(skin_scan.o)
 .bss           0x006a26e8        0x0 /home/ubuntu/Desktop/RockboxRCC/bu800/lib/libskin_parser.a(tag_table.o)
 .bss           0x006a26e8        0x0 /home/ubuntu/Desktop/RockboxRCC/bu800/lib/libfixedpoint.a(fixedpoint.o)
 .bss           0x006a26e8       0x20 /home/ubuntu/Desktop/RockboxRCC/bu800/cpu-features.o
 .bss           0x006a2708        0x0 /home/ubuntu/Desktop/RockboxRCC/bu800/firmware/target/hosted/android/jni/power-manager.o
 .bss           0x006a2708        0x0 /home/ubuntu/android-ndk-r9c/toolchains/arm-linux-androideabi-4.6/prebuilt/linux-x86/bin/../lib/gcc/arm-linux-androideabi/4.6/libgcc.a(_udivsi3.o)
 .bss           0x006a2708        0x0 /home/ubuntu/android-ndk-r9c/toolchains/arm-linux-androideabi-4.6/prebuilt/linux-x86/bin/../lib/gcc/arm-linux-androideabi/4.6/libgcc.a(_divsi3.o)
 .bss           0x006a2708        0x0 /home/ubuntu/android-ndk-r9c/toolchains/arm-linux-androideabi-4.6/prebuilt/linux-x86/bin/../lib/gcc/arm-linux-androideabi/4.6/libgcc.a(_arm_addsubdf3.o)
 .bss           0x006a2708        0x0 /home/ubuntu/android-ndk-r9c/toolchains/arm-linux-androideabi-4.6/prebuilt/linux-x86/bin/../lib/gcc/arm-linux-androideabi/4.6/libgcc.a(_arm_muldivdf3.o)
 .bss           0x006a2708        0x0 /home/ubuntu/android-ndk-r9c/toolchains/arm-linux-androideabi-4.6/prebuilt/linux-x86/bin/../lib/gcc/arm-linux-androideabi/4.6/libgcc.a(_arm_truncdfsf2.o)
 .bss           0x006a2708        0x0 /home/ubuntu/android-ndk-r9c/toolchains/arm-linux-androideabi-4.6/prebuilt/linux-x86/bin/../lib/gcc/arm-linux-androideabi/4.6/libgcc.a(_arm_addsubsf3.o)
 .bss           0x006a2708        0x0 /home/ubuntu/android-ndk-r9c/toolchains/arm-linux-androideabi-4.6/prebuilt/linux-x86/bin/../lib/gcc/arm-linux-androideabi/4.6/libgcc.a(_arm_muldivsf3.o)
 .bss           0x006a2708        0x0 /home/ubuntu/android-ndk-r9c/toolchains/arm-linux-androideabi-4.6/prebuilt/linux-x86/bin/../lib/gcc/arm-linux-androideabi/4.6/libgcc.a(_arm_fixsfsi.o)
 .bss           0x006a2708        0x0 /home/ubuntu/android-ndk-r9c/toolchains/arm-linux-androideabi-4.6/prebuilt/linux-x86/bin/../lib/gcc/arm-linux-androideabi/4.6/libgcc.a(_aeabi_ldivmod.o)
 .bss           0x006a2708        0x0 /home/ubuntu/android-ndk-r9c/toolchains/arm-linux-androideabi-4.6/prebuilt/linux-x86/bin/../lib/gcc/arm-linux-androideabi/4.6/libgcc.a(_aeabi_uldivmod.o)
 .bss           0x006a2708        0x0 /home/ubuntu/android-ndk-r9c/toolchains/arm-linux-androideabi-4.6/prebuilt/linux-x86/bin/../lib/gcc/arm-linux-androideabi/4.6/libgcc.a(_dvmd_lnx.o)
 .bss           0x006a2708        0x0 /home/ubuntu/android-ndk-r9c/toolchains/arm-linux-androideabi-4.6/prebuilt/linux-x86/bin/../lib/gcc/arm-linux-androideabi/4.6/libgcc.a(_popcountsi2.o)
 .bss           0x006a2708        0x0 /home/ubuntu/android-ndk-r9c/toolchains/arm-linux-androideabi-4.6/prebuilt/linux-x86/bin/../lib/gcc/arm-linux-androideabi/4.6/libgcc.a(bpabi.o)
 .bss           0x006a2708        0x0 /home/ubuntu/android-ndk-r9c/toolchains/arm-linux-androideabi-4.6/prebuilt/linux-x86/bin/../lib/gcc/arm-linux-androideabi/4.6/libgcc.a(unwind-arm.o)
 .bss           0x006a2708        0x0 /home/ubuntu/android-ndk-r9c/toolchains/arm-linux-androideabi-4.6/prebuilt/linux-x86/bin/../lib/gcc/arm-linux-androideabi/4.6/libgcc.a(libunwind.o)
 .bss           0x006a2708        0x0 /home/ubuntu/android-ndk-r9c/toolchains/arm-linux-androideabi-4.6/prebuilt/linux-x86/bin/../lib/gcc/arm-linux-androideabi/4.6/libgcc.a(pr-support.o)
 .bss           0x006a2708        0x0 /home/ubuntu/android-ndk-r9c/toolchains/arm-linux-androideabi-4.6/prebuilt/linux-x86/bin/../lib/gcc/arm-linux-androideabi/4.6/libgcc.a(_popcount_tab.o)
 .bss           0x006a2708        0x0 /home/ubuntu/android-ndk-r9c/toolchains/arm-linux-androideabi-4.6/prebuilt/linux-x86/bin/../lib/gcc/arm-linux-androideabi/4.6/libgcc.a(_divdi3.o)
 .bss           0x006a2708        0x0 /home/ubuntu/android-ndk-r9c/toolchains/arm-linux-androideabi-4.6/prebuilt/linux-x86/bin/../lib/gcc/arm-linux-androideabi/4.6/libgcc.a(_udivdi3.o)
 .bss           0x006a2708        0x0 /home/ubuntu/android-ndk-r9c/platforms/android-19/arch-arm/usr/lib/crtend_so.o
 ** common      0x006a2720  0x1e35c30
